	.cpu generic+fp+simd
	.file	"nf_app_dl_monitor.c"
	.text
.Ltext0:
	.cfi_sections	.debug_frame
	.align	2
	.type	dl_timer, %function
dl_timer:
.LFB3912:
	.file 1 "/mnt/disk/jenkins/ci/workspace/chipset_EMUI9.0.1_Boston_Release/opensource/component_code/vendor/huawei/extra/build/build_script/kirin_kernel_release/kernel/drivers/huawei_platform/net/hw_netfilter/nf_app_dl_monitor.c"
	.loc 1 309 0
	.cfi_startproc
.LVL0:
	stp	x29, x30, [sp, -64]!
	.cfi_def_cfa_offset 64
	.cfi_offset 29, -64
	.cfi_offset 30, -56
	add	x29, sp, 0
	.cfi_def_cfa_register 29
	stp	x21, x22, [sp,32]
	stp	x19, x20, [sp,16]
	str	x23, [sp,48]
	.cfi_offset 21, -32
	.cfi_offset 22, -24
	.cfi_offset 19, -48
	.cfi_offset 20, -40
	.cfi_offset 23, -16
	adrp	x21, .LANCHOR0
	.loc 1 313 0
	cbz	x0, .L11
.L2:
	.loc 1 326 0
	adrp	x1, jiffies
	add	x21, x21, :lo12:.LANCHOR0
	add	x3, x21, 40
	.loc 1 327 0
	mov	x0, x3
.LVL1:
	.loc 1 326 0
	ldr	x1, [x1,#:lo12:jiffies]
	add	x1, x1, 40960
	add	x1, x1, 4040
	str	x1, [x21,56]
	.loc 1 327 0
	bl	add_timer
.LVL2:
	.loc 1 328 0
	ldr	x23, [sp,48]
	.cfi_remember_state
	.cfi_restore 23
	ldp	x19, x20, [sp,16]
	.cfi_restore 20
	.cfi_restore 19
	ldp	x21, x22, [sp,32]
	.cfi_restore 22
	.cfi_restore 21
	ldp	x29, x30, [sp], 64
	.cfi_restore 30
	.cfi_restore 29
	.cfi_def_cfa 31, 0
	ret
.LVL3:
.L11:
	.cfi_restore_state
.LBB295:
.LBB296:
	.file 2 "/mnt/disk/jenkins/ci/workspace/chipset_EMUI9.0.1_Boston_Release/opensource/component_code/vendor/huawei/extra/build/build_script/kirin_kernel_release/kernel/include/linux/spinlock.h"
	.loc 2 307 0
	add	x22, x21, :lo12:.LANCHOR0
	mov	x0, x22
.LVL4:
.LBE296:
.LBE295:
.LBB298:
	.loc 1 315 0
	add	x22, x22, 24
.LBE298:
.LBB299:
.LBB297:
	.loc 2 307 0
	bl	_raw_spin_lock_bh
.LVL5:
.LBE297:
.LBE299:
.LBB300:
	.loc 1 315 0
	ldr	x20, [x22]
.LBE300:
	.loc 1 318 0
	adrp	x0, .LC0
	.loc 1 315 0 discriminator 1
	cmp	x20, x22
	.loc 1 318 0
	add	x23, x0, :lo12:.LC0
.LBB301:
	.loc 1 315 0
	ldr	x19, [x20]
.LBE301:
	.loc 1 315 0 is_stmt 0 discriminator 1
	bne	.L9
	b	.L6
.L7:
	.loc 1 315 0 discriminator 2
	mov	x19, x1
.L9:
	.loc 1 316 0 is_stmt 1
	bl	get_cur_time
.LVL6:
	ldr	x1, [x20,16]
	mov	x2, 54464
	movk	x2, 0x1, lsl 16
	sub	x0, x0, x1
	cmp	x0, x2
	bhi	.L12
.L4:
	.loc 1 315 0 discriminator 1
	cmp	x19, x22
.LBB302:
	.loc 1 315 0 is_stmt 0 discriminator 2
	ldr	x1, [x19]
	mov	x20, x19
.LBE302:
	.loc 1 315 0 discriminator 1
	bne	.L7
.L6:
.LBB303:
.LBB304:
	.loc 2 352 0 is_stmt 1
	add	x0, x21, :lo12:.LANCHOR0
	bl	_raw_spin_unlock_bh
.LVL7:
	b	.L2
.L12:
.LBE304:
.LBE303:
.LBB305:
.LBB306:
	.file 3 "/mnt/disk/jenkins/ci/workspace/chipset_EMUI9.0.1_Boston_Release/opensource/component_code/vendor/huawei/extra/build/build_script/kirin_kernel_release/kernel/include/linux/list.h"
	.loc 3 107 0
	ldr	x4, [x20]
	.loc 3 108 0
	mov	x1, 256
	.loc 3 107 0
	ldr	x2, [x20,8]
	.loc 3 108 0
	movk	x1, 0xdead, lsl 48
	.loc 3 109 0
	mov	x3, 512
.LBE306:
.LBE305:
	.loc 1 318 0
	mov	x0, x23
.LBB316:
.LBB314:
.LBB307:
.LBB308:
	.loc 3 89 0
	str	x2, [x4,8]
.LBE308:
.LBE307:
	.loc 3 109 0
	movk	x3, 0xdead, lsl 48
.LBB313:
.LBB312:
.LBB309:
.LBB310:
.LBB311:
	.file 4 "/mnt/disk/jenkins/ci/workspace/chipset_EMUI9.0.1_Boston_Release/opensource/component_code/vendor/huawei/extra/build/build_script/kirin_kernel_release/kernel/include/linux/compiler.h"
	.loc 4 276 0
	str	x4, [x2]
.LBE311:
.LBE310:
.LBE309:
.LBE312:
.LBE313:
	.loc 3 108 0
	str	x1, [x20]
.LBE314:
.LBE316:
	.loc 1 318 0
	ldr	x2, [x20,96]
	ldr	w1, [x20,80]
.LBB317:
.LBB315:
	.loc 3 109 0
	str	x3, [x20,8]
.LBE315:
.LBE317:
	.loc 1 318 0
	bl	printk
.LVL8:
.LBB318:
.LBB319:
	.loc 1 272 0
	ldr	x0, [x20,96]
	bl	kfree
.LVL9:
	.loc 1 273 0
	mov	x0, x20
	bl	kfree
.LVL10:
	b	.L4
.LBE319:
.LBE318:
	.cfi_endproc
.LFE3912:
	.size	dl_timer, .-dl_timer
	.align	2
	.type	clear_appdl_rule.part.0, %function
clear_appdl_rule.part.0:
.LFB3920:
	.loc 1 127 0
	.cfi_startproc
	stp	x29, x30, [sp, -64]!
	.cfi_def_cfa_offset 64
	.cfi_offset 29, -64
	.cfi_offset 30, -56
	.loc 1 137 0
	adrp	x0, .LC1
	.loc 1 127 0
	add	x29, sp, 0
	.cfi_def_cfa_register 29
	stp	x21, x22, [sp,32]
	.cfi_offset 21, -32
	.cfi_offset 22, -24
	adrp	x21, .LANCHOR1
	adrp	x22, .LANCHOR0
	add	x21, x21, :lo12:.LANCHOR1
	add	x22, x22, :lo12:.LANCHOR0
	add	x21, x21, 1880
	str	x23, [sp,48]
	.loc 1 137 0
	add	x0, x0, :lo12:.LC1
	add	x22, x22, 88
	.cfi_offset 23, -16
	add	x23, x21, 4096
	.loc 1 127 0
	stp	x19, x20, [sp,16]
	.cfi_offset 19, -48
	.cfi_offset 20, -40
	.loc 1 137 0
	bl	printk
.LVL11:
.L15:
.LBB320:
.LBB321:
	.loc 2 307 0
	mov	x0, x22
	bl	_raw_spin_lock_bh
.LVL12:
.LBE321:
.LBE320:
.LBB322:
	.loc 1 140 0
	ldr	x1, [x21]
.LBE322:
	.loc 1 140 0 is_stmt 0 discriminator 1
	cmp	x1, x21
.LBB323:
	.loc 1 140 0
	ldr	x19, [x1]
.LBE323:
	.loc 1 140 0 discriminator 1
	beq	.L18
.L19:
.LBB324:
.LBB325:
	.loc 3 107 0 is_stmt 1
	ldr	x0, [x1,8]
	.loc 3 108 0
	mov	x3, 256
.LBB326:
.LBB327:
	.loc 3 89 0
	str	x0, [x19,8]
.LBE327:
.LBE326:
	.loc 3 109 0
	mov	x2, 512
	.loc 3 108 0
	movk	x3, 0xdead, lsl 48
	.loc 3 109 0
	movk	x2, 0xdead, lsl 48
.LBB332:
.LBB331:
.LBB328:
.LBB329:
.LBB330:
	.loc 4 276 0
	str	x19, [x0]
.LBE330:
.LBE329:
.LBE328:
.LBE331:
.LBE332:
.LBE325:
.LBE324:
	.loc 1 142 0
	mov	x0, x1
.LBB334:
.LBB333:
	.loc 3 108 0
	str	x3, [x1]
	.loc 3 109 0
	str	x2, [x1,8]
.LBE333:
.LBE334:
	.loc 1 142 0
	bl	kfree
.LVL13:
	.loc 1 140 0 discriminator 1
	cmp	x19, x21
	mov	x1, x19
	.loc 1 140 0 is_stmt 0 discriminator 3
	ldr	x19, [x19]
	.loc 1 140 0 discriminator 1
	bne	.L19
.L18:
.LBB335:
.LBB336:
	.loc 2 352 0 is_stmt 1
	mov	x0, x22
	add	x21, x21, 16
	add	x22, x22, 24
	bl	_raw_spin_unlock_bh
.LVL14:
.LBE336:
.LBE335:
	.loc 1 138 0 discriminator 1
	cmp	x21, x23
	bne	.L15
	.loc 1 146 0
	ldp	x19, x20, [sp,16]
	.cfi_restore 20
	.cfi_restore 19
	ldp	x21, x22, [sp,32]
	.cfi_restore 22
	.cfi_restore 21
	ldr	x23, [sp,48]
	.cfi_restore 23
	ldp	x29, x30, [sp], 64
	.cfi_restore 30
	.cfi_restore 29
	.cfi_def_cfa 31, 0
	ret
	.cfi_endproc
.LFE3920:
	.size	clear_appdl_rule.part.0, .-clear_appdl_rule.part.0
	.align	2
	.global	add_appdl_uid
	.type	add_appdl_uid, %function
add_appdl_uid:
.LFB3900:
	.loc 1 38 0
	.cfi_startproc
.LVL15:
	stp	x29, x30, [sp, -96]!
	.cfi_def_cfa_offset 96
	.cfi_offset 29, -96
	.cfi_offset 30, -88
	add	x29, sp, 0
	.cfi_def_cfa_register 29
	stp	x19, x20, [sp,16]
	stp	x21, x22, [sp,32]
	stp	x23, x24, [sp,48]
	str	x25, [sp,64]
	.cfi_offset 19, -80
	.cfi_offset 20, -72
	.cfi_offset 21, -64
	.cfi_offset 22, -56
	.cfi_offset 23, -48
	.cfi_offset 24, -40
	.cfi_offset 25, -32
	.loc 1 38 0
	mov	w19, w0
	.loc 1 40 0
	bl	get_hash_id
.LVL16:
	.loc 1 42 0
	cmp	w0, 255
	.loc 1 40 0
	mov	w1, w0
.LVL17:
	.loc 1 42 0
	bhi	.L38
.LVL18:
.LBB337:
.LBB338:
	.loc 2 307 0
	uxtw	x22, w0
.LVL19:
	adrp	x0, .LANCHOR0
	lsl	x21, x22, 5
	add	x0, x0, :lo12:.LANCHOR0
	add	x0, x0, 88
	sub	x21, x21, x22, lsl 3
.LBE338:
.LBE337:
.LBB342:
	.loc 1 47 0
	adrp	x24, .LANCHOR1
.LBE342:
.LBB343:
.LBB339:
	.loc 2 307 0
	add	x21, x0, x21
.LBE339:
.LBE343:
.LBB344:
	.loc 1 47 0
	add	x23, x24, :lo12:.LANCHOR1
.LBE344:
.LBB345:
.LBB340:
	.loc 2 307 0
	mov	x0, x21
.LBE340:
.LBE345:
.LBB346:
	.loc 1 47 0
	lsl	x25, x22, 4
	add	x23, x23, 1880
.LBE346:
.LBB347:
.LBB341:
	.loc 2 307 0
	str	x1, [x29,88]
	bl	_raw_spin_lock_bh
.LVL20:
.LBE341:
.LBE347:
.LBB348:
	.loc 1 47 0
	add	x20, x23, x25
.LBE348:
	.loc 1 47 0 is_stmt 0 discriminator 1
	ldr	x1, [x29,88]
.LVL21:
.LBB349:
	.loc 1 47 0
	ldr	x0, [x23,x25]
.LVL22:
.LBE349:
	.loc 1 47 0 discriminator 1
	cmp	x0, x20
	bne	.L31
	b	.L27
.L30:
.LBB350:
	.loc 1 47 0 discriminator 2
	ldr	x0, [x0]
.LBE350:
	.loc 1 47 0 discriminator 1
	cmp	x0, x20
	beq	.L27
.L31:
	.loc 1 48 0 is_stmt 1
	ldr	w2, [x0,16]
	cmp	w2, w19
	bne	.L30
	.loc 1 49 0
	adrp	x0, .LC3
.LVL23:
	mov	w2, w19
	add	x0, x0, :lo12:.LC3
	bl	printk
.LVL24:
.LBB351:
.LBB352:
	.loc 2 352 0
	mov	x0, x21
	bl	_raw_spin_unlock_bh
.LVL25:
.LBE352:
.LBE351:
	.loc 1 61 0
	ldr	x25, [sp,64]
	.cfi_remember_state
	.cfi_restore 25
	ldp	x19, x20, [sp,16]
	.cfi_restore 20
	.cfi_restore 19
.LVL26:
	ldp	x21, x22, [sp,32]
	.cfi_restore 22
	.cfi_restore 21
	ldp	x23, x24, [sp,48]
	.cfi_restore 24
	.cfi_restore 23
	ldp	x29, x30, [sp], 96
	.cfi_restore 30
	.cfi_restore 29
	.cfi_def_cfa 31, 0
	ret
.LVL27:
.L27:
	.cfi_restore_state
	.loc 1 54 0
	adrp	x0, .LC4
.LVL28:
	mov	w2, w19
	add	x0, x0, :lo12:.LC4
	bl	printk
.LVL29:
.LBB353:
.LBB354:
	.file 5 "/mnt/disk/jenkins/ci/workspace/chipset_EMUI9.0.1_Boston_Release/opensource/component_code/vendor/huawei/extra/build/build_script/kirin_kernel_release/kernel/include/linux/slab.h"
	.loc 5 499 0
	adrp	x0, kmalloc_caches+48
	mov	w1, 32
	mov	x2, 24
	movk	w1, 0x208, lsl 16
	ldr	x0, [x0,#:lo12:kmalloc_caches+48]
	bl	kmem_cache_alloc_trace
.LVL30:
.LBE354:
.LBE353:
	.loc 1 56 0
	cbz	x0, .L32
.LBB355:
.LBB356:
	.loc 3 63 0
	add	x24, x24, :lo12:.LANCHOR1
.LBE356:
.LBE355:
	.loc 1 57 0
	str	w19, [x0,16]
.LVL31:
.LBB363:
.LBB362:
	.loc 3 63 0
	add	x22, x24, x22, lsl 4
.LVL32:
	ldr	x1, [x22,1880]
.LBB357:
.LBB358:
	.loc 3 42 0
	str	x0, [x1,8]
	.loc 3 43 0
	str	x1, [x0]
	.loc 3 44 0
	str	x20, [x0,8]
.LBB359:
.LBB360:
.LBB361:
	.loc 4 276 0
	str	x0, [x23,x25]
.L32:
.LBE361:
.LBE360:
.LBE359:
.LBE358:
.LBE357:
.LBE362:
.LBE363:
.LBB364:
.LBB365:
	.loc 2 352 0
	mov	x0, x21
	bl	_raw_spin_unlock_bh
.LVL33:
.LBE365:
.LBE364:
	.loc 1 61 0
	ldr	x25, [sp,64]
	.cfi_remember_state
	.cfi_restore 25
	ldp	x19, x20, [sp,16]
	.cfi_restore 19
	.cfi_restore 20
.LVL34:
	ldp	x21, x22, [sp,32]
	.cfi_restore 21
	.cfi_restore 22
	ldp	x23, x24, [sp,48]
	.cfi_restore 23
	.cfi_restore 24
	ldp	x29, x30, [sp], 96
	.cfi_restore 29
	.cfi_restore 30
	.cfi_def_cfa 31, 0
	ret
.LVL35:
.L38:
	.cfi_restore_state
	.loc 1 43 0
	adrp	x0, .LC2
	add	x0, x0, :lo12:.LC2
	bl	printk
.LVL36:
	.loc 1 61 0
	ldr	x25, [sp,64]
	.cfi_restore 25
	ldp	x19, x20, [sp,16]
	.cfi_restore 19
	.cfi_restore 20
.LVL37:
	ldp	x21, x22, [sp,32]
	.cfi_restore 21
	.cfi_restore 22
	ldp	x23, x24, [sp,48]
	.cfi_restore 23
	.cfi_restore 24
	ldp	x29, x30, [sp], 96
	.cfi_restore 29
	.cfi_restore 30
	.cfi_def_cfa 31, 0
	ret
	.cfi_endproc
.LFE3900:
	.size	add_appdl_uid, .-add_appdl_uid
	.align	2
	.global	clear_appdl_uid
	.type	clear_appdl_uid, %function
clear_appdl_uid:
.LFB3901:
	.loc 1 64 0
	.cfi_startproc
.LVL38:
	stp	x29, x30, [sp, -48]!
	.cfi_def_cfa_offset 48
	.cfi_offset 29, -48
	.cfi_offset 30, -40
	add	x29, sp, 0
	.cfi_def_cfa_register 29
	stp	x19, x20, [sp,16]
	str	x21, [sp,32]
	.cfi_offset 19, -32
	.cfi_offset 20, -24
	.cfi_offset 21, -16
	.loc 1 64 0
	mov	w20, w0
	.loc 1 66 0
	bl	get_hash_id
.LVL39:
	.loc 1 68 0
	cmp	w0, 255
	bhi	.L49
.LBB366:
.LBB367:
	.loc 2 307 0
	uxtw	x19, w0
.LVL40:
	adrp	x21, .LANCHOR0
	lsl	x0, x19, 5
	add	x21, x21, :lo12:.LANCHOR0
	sub	x0, x0, x19, lsl 3
	add	x21, x21, 88
	add	x21, x21, x0
.LBE367:
.LBE366:
.LBB369:
	.loc 1 73 0
	lsl	x19, x19, 4
.LVL41:
.LBE369:
.LBB370:
.LBB368:
	.loc 2 307 0
	mov	x0, x21
	bl	_raw_spin_lock_bh
.LVL42:
.LBE368:
.LBE370:
.LBB371:
	.loc 1 73 0
	adrp	x0, .LANCHOR1
	add	x0, x0, :lo12:.LANCHOR1
	add	x0, x0, 1880
	add	x2, x0, x19
	ldr	x19, [x0,x19]
.LVL43:
.LBE371:
	.loc 1 73 0 is_stmt 0 discriminator 1
	cmp	x19, x2
	beq	.L42
.L46:
	.loc 1 74 0 is_stmt 1
	ldr	w0, [x19,16]
	cmp	w0, w20
	beq	.L50
.LBB372:
	.loc 1 73 0 discriminator 2
	ldr	x19, [x19]
.LBE372:
	.loc 1 73 0 is_stmt 0 discriminator 1
	cmp	x19, x2
	bne	.L46
.L42:
.LBB373:
.LBB374:
	.loc 2 352 0 is_stmt 1
	mov	x0, x21
	bl	_raw_spin_unlock_bh
.LVL44:
.L39:
.LBE374:
.LBE373:
	.loc 1 83 0
	ldp	x19, x20, [sp,16]
	.cfi_remember_state
	.cfi_restore 20
	.cfi_restore 19
.LVL45:
	ldr	x21, [sp,32]
	.cfi_restore 21
	ldp	x29, x30, [sp], 48
	.cfi_restore 30
	.cfi_restore 29
	.cfi_def_cfa 31, 0
	ret
.LVL46:
.L50:
	.cfi_restore_state
	.loc 1 75 0
	adrp	x0, .LC6
	mov	w1, w20
	add	x0, x0, :lo12:.LC6
	bl	printk
.LVL47:
.LBB375:
.LBB376:
	.loc 3 107 0
	ldr	x3, [x19]
	.loc 3 108 0
	mov	x2, 256
	.loc 3 107 0
	ldr	x0, [x19,8]
	.loc 3 109 0
	mov	x1, 512
	.loc 3 108 0
	movk	x2, 0xdead, lsl 48
	.loc 3 109 0
	movk	x1, 0xdead, lsl 48
.LBB377:
.LBB378:
	.loc 3 89 0
	str	x0, [x3,8]
.LBB379:
.LBB380:
.LBB381:
	.loc 4 276 0
	str	x3, [x0]
.LBE381:
.LBE380:
.LBE379:
.LBE378:
.LBE377:
.LBE376:
.LBE375:
.LBB383:
.LBB384:
	.loc 2 352 0
	mov	x0, x21
.LBE384:
.LBE383:
.LBB386:
.LBB382:
	.loc 3 108 0
	str	x2, [x19]
	.loc 3 109 0
	str	x1, [x19,8]
.LBE382:
.LBE386:
.LBB387:
.LBB385:
	.loc 2 352 0
	bl	_raw_spin_unlock_bh
.LVL48:
.LBE385:
.LBE387:
	.loc 1 78 0
	mov	x0, x19
	bl	kfree
.LVL49:
	.loc 1 79 0
	b	.L39
.LVL50:
.L49:
	.loc 1 69 0
	mov	w1, w0
	adrp	x0, .LC5
.LVL51:
	add	x0, x0, :lo12:.LC5
	bl	printk
.LVL52:
	.loc 1 70 0
	b	.L39
	.cfi_endproc
.LFE3901:
	.size	clear_appdl_uid, .-clear_appdl_uid
	.align	2
	.global	add_appdl_rule
	.type	add_appdl_rule, %function
add_appdl_rule:
.LFB3902:
	.loc 1 86 0
	.cfi_startproc
.LVL53:
	stp	x29, x30, [sp, -48]!
	.cfi_def_cfa_offset 48
	.cfi_offset 29, -48
	.cfi_offset 30, -40
	uxtb	w1, w1
	add	x29, sp, 0
	.cfi_def_cfa_register 29
	stp	x19, x20, [sp,16]
	.cfi_offset 19, -32
	.cfi_offset 20, -24
	.loc 1 86 0
	adrp	x20, __stack_chk_guard
	mov	x19, x0
	.loc 1 93 0
	str	x0, [x29,32]
.LVL54:
	.loc 1 86 0
	ldr	x2, [x20,#:lo12:__stack_chk_guard]
	str	x2, [x29,40]
	.loc 1 94 0
	cbz	w1, .L64
	b	.L65
.LVL55:
.L60:
	.loc 1 97 0
	mov	x0, x19
	mov	w1, 59
.LVL56:
	bl	strchr
.LVL57:
	str	x0, [x29,32]
	.loc 1 98 0
	cbz	x0, .L51
	.loc 1 99 0
	mov	x0, x19
	add	x1, x29, 32
	mov	w2, 10
	bl	simple_strtoull
.LVL58:
	.loc 1 100 0
	bl	add_appdl_uid
.LVL59:
	.loc 1 101 0
	ldr	x0, [x29,32]
	add	x19, x0, 1
.LVL60:
.L64:
	.loc 1 96 0
	ldrb	w0, [x0]
	cbnz	w0, .L60
.L51:
	.loc 1 106 0
	ldr	x1, [x29,40]
.LVL61:
	ldr	x0, [x20,#:lo12:__stack_chk_guard]
	cmp	x1, x0
	bne	.L66
	ldp	x19, x20, [sp,16]
	.cfi_remember_state
	.cfi_restore 20
	.cfi_restore 19
.LVL62:
	ldp	x29, x30, [sp], 48
	.cfi_restore 30
	.cfi_restore 29
	.cfi_def_cfa 31, 0
	ret
.LVL63:
.L65:
	.cfi_restore_state
.LBB388:
.LBB389:
	bl	clear_appdl_rule.part.0
.LVL64:
	ldr	x0, [x29,32]
	b	.L64
.L66:
.LBE389:
.LBE388:
	bl	__stack_chk_fail
.LVL65:
	.cfi_endproc
.LFE3902:
	.size	add_appdl_rule, .-add_appdl_rule
	.align	2
	.global	clear_appdl_rule_string
	.type	clear_appdl_rule_string, %function
clear_appdl_rule_string:
.LFB3903:
	.loc 1 109 0
	.cfi_startproc
.LVL66:
	stp	x29, x30, [sp, -64]!
	.cfi_def_cfa_offset 64
	.cfi_offset 29, -64
	.cfi_offset 30, -56
	add	x29, sp, 0
	.cfi_def_cfa_register 29
	str	x21, [sp,32]
	.cfi_offset 21, -32
	adrp	x21, __stack_chk_guard
	stp	x19, x20, [sp,16]
	.cfi_offset 19, -48
	.cfi_offset 20, -40
	.loc 1 116 0
	add	x20, x29, 64
	.loc 1 109 0
	mov	x19, x0
	ldr	x1, [x21,#:lo12:__stack_chk_guard]
	str	x1, [x29,56]
	.loc 1 116 0
	str	x19, [x20,-16]!
.LVL67:
.L68:
	.loc 1 117 0
	cbz	x0, .L67
	.loc 1 117 0 is_stmt 0 discriminator 1
	ldrb	w0, [x0]
	cbz	w0, .L67
	.loc 1 118 0 is_stmt 1
	mov	x0, x19
	mov	w1, 59
	bl	strchr
.LVL68:
	str	x0, [x29,48]
.LVL69:
	.loc 1 119 0
	cbnz	x0, .L78
.L67:
	.loc 1 125 0
	ldr	x1, [x29,56]
	ldr	x0, [x21,#:lo12:__stack_chk_guard]
	cmp	x1, x0
	bne	.L79
	ldp	x19, x20, [sp,16]
	.cfi_remember_state
	.cfi_restore 20
	.cfi_restore 19
.LVL70:
	ldr	x21, [sp,32]
	.cfi_restore 21
	ldp	x29, x30, [sp], 64
	.cfi_restore 30
	.cfi_restore 29
	.cfi_def_cfa 31, 0
	ret
.LVL71:
.L78:
	.cfi_restore_state
	.loc 1 120 0
	mov	x0, x19
	mov	x1, x20
	mov	w2, 10
	bl	simple_strtoull
.LVL72:
	.loc 1 121 0
	bl	clear_appdl_uid
.LVL73:
	.loc 1 122 0
	ldr	x0, [x29,48]
	add	x19, x0, 1
	b	.L68
.LVL74:
.L79:
	.loc 1 125 0
	bl	__stack_chk_fail
.LVL75:
	.cfi_endproc
.LFE3903:
	.size	clear_appdl_rule_string, .-clear_appdl_rule_string
	.align	2
	.global	clear_appdl_rule
	.type	clear_appdl_rule, %function
clear_appdl_rule:
.LFB3904:
	.loc 1 128 0
	.cfi_startproc
.LVL76:
	stp	x29, x30, [sp, -16]!
	.cfi_def_cfa_offset 16
	.cfi_offset 29, -16
	.cfi_offset 30, -8
	add	x29, sp, 0
	.cfi_def_cfa_register 29
	.loc 1 133 0
	cbnz	w0, .L81
	.loc 1 134 0
	mov	x0, x1
.LVL77:
	bl	clear_appdl_rule_string
.LVL78:
.L80:
	.loc 1 146 0
	ldp	x29, x30, [sp], 16
	.cfi_remember_state
	.cfi_restore 30
	.cfi_restore 29
	.cfi_def_cfa 31, 0
	ret
.LVL79:
.L81:
	.cfi_restore_state
	bl	clear_appdl_rule.part.0
.LVL80:
	b	.L80
	.cfi_endproc
.LFE3904:
	.size	clear_appdl_rule, .-clear_appdl_rule
	.align	2
	.global	output_appdl_rule
	.type	output_appdl_rule, %function
output_appdl_rule:
.LFB3905:
	.loc 1 149 0
	.cfi_startproc
	stp	x29, x30, [sp, -64]!
	.cfi_def_cfa_offset 64
	.cfi_offset 29, -64
	.cfi_offset 30, -56
	.loc 1 153 0
	adrp	x0, .LC7
	.loc 1 149 0
	add	x29, sp, 0
	.cfi_def_cfa_register 29
	.loc 1 153 0
	add	x0, x0, :lo12:.LC7
	.loc 1 149 0
	stp	x19, x20, [sp,16]
	.cfi_offset 19, -48
	.cfi_offset 20, -40
	adrp	x19, .LANCHOR1
	str	x23, [sp,48]
	stp	x21, x22, [sp,32]
	.cfi_offset 23, -16
	.cfi_offset 21, -32
	.cfi_offset 22, -24
	add	x19, x19, :lo12:.LANCHOR1
	.loc 1 153 0
	bl	printk
.LVL81:
	adrp	x20, .LANCHOR0
	add	x19, x19, 1880
	add	x20, x20, :lo12:.LANCHOR0
	.loc 1 157 0
	adrp	x0, .LC8
	add	x20, x20, 88
	add	x22, x19, 4096
	add	x23, x0, :lo12:.LC8
.LVL82:
.L85:
.LBB390:
.LBB391:
	.loc 2 307 0
	mov	x0, x20
	bl	_raw_spin_lock_bh
.LVL83:
.LBE391:
.LBE390:
.LBB392:
	.loc 1 156 0
	ldr	x21, [x19]
.LBE392:
	.loc 1 156 0 is_stmt 0 discriminator 1
	cmp	x21, x19
	bne	.L87
.L88:
.LBB393:
.LBB394:
	.loc 2 352 0 is_stmt 1
	mov	x0, x20
	add	x19, x19, 16
	add	x20, x20, 24
	bl	_raw_spin_unlock_bh
.LVL84:
.LBE394:
.LBE393:
	.loc 1 154 0 discriminator 1
	cmp	x19, x22
	bne	.L85
	.loc 1 162 0
	adrp	x0, .LC9
	add	x0, x0, :lo12:.LC9
	bl	printk
.LVL85:
	.loc 1 164 0
	ldr	x23, [sp,48]
	.cfi_remember_state
	.cfi_restore 23
	ldp	x19, x20, [sp,16]
	.cfi_restore 20
	.cfi_restore 19
	ldp	x21, x22, [sp,32]
	.cfi_restore 22
	.cfi_restore 21
.LVL86:
	ldp	x29, x30, [sp], 64
	.cfi_restore 30
	.cfi_restore 29
	.cfi_def_cfa 31, 0
	ret
.LVL87:
.L87:
	.cfi_restore_state
	.loc 1 157 0
	ldr	w1, [x21,16]
	mov	x0, x23
	bl	printk
.LVL88:
.LBB395:
	.loc 1 156 0 discriminator 3
	ldr	x21, [x21]
.LBE395:
	.loc 1 156 0 is_stmt 0 discriminator 1
	cmp	x21, x19
	beq	.L88
	b	.L87
	.cfi_endproc
.LFE3905:
	.size	output_appdl_rule, .-output_appdl_rule
	.align	2
	.global	match_appdl_uid
	.type	match_appdl_uid, %function
match_appdl_uid:
.LFB3906:
	.loc 1 167 0 is_stmt 1
	.cfi_startproc
.LVL89:
	stp	x29, x30, [sp, -48]!
	.cfi_def_cfa_offset 48
	.cfi_offset 29, -48
	.cfi_offset 30, -40
	add	x29, sp, 0
	.cfi_def_cfa_register 29
	stp	x19, x20, [sp,16]
	str	x21, [sp,32]
	.cfi_offset 19, -32
	.cfi_offset 20, -24
	.cfi_offset 21, -16
	.loc 1 167 0
	mov	w19, w0
	.loc 1 169 0
	bl	get_hash_id
.LVL90:
	.loc 1 171 0
	cmp	w0, 255
	bhi	.L103
.LBB396:
.LBB397:
	.loc 2 307 0
	uxtw	x20, w0
.LVL91:
	adrp	x21, .LANCHOR0
	lsl	x0, x20, 5
	add	x21, x21, :lo12:.LANCHOR0
	sub	x0, x0, x20, lsl 3
	add	x21, x21, 88
	add	x21, x21, x0
.LBE397:
.LBE396:
.LBB399:
	.loc 1 176 0
	lsl	x20, x20, 4
.LVL92:
.LBE399:
.LBB400:
.LBB398:
	.loc 2 307 0
	mov	x0, x21
	bl	_raw_spin_lock_bh
.LVL93:
.LBE398:
.LBE400:
.LBB401:
	.loc 1 176 0
	adrp	x0, .LANCHOR1
	add	x0, x0, :lo12:.LANCHOR1
	add	x0, x0, 1880
	add	x2, x0, x20
	ldr	x0, [x0,x20]
.LVL94:
.LBE401:
	.loc 1 176 0 is_stmt 0 discriminator 1
	cmp	x0, x2
	bne	.L100
	b	.L96
.L99:
.LBB402:
	.loc 1 176 0 discriminator 2
	ldr	x0, [x0]
.LBE402:
	.loc 1 176 0 discriminator 1
	cmp	x0, x2
	beq	.L96
.L100:
	.loc 1 177 0 is_stmt 1
	ldr	w1, [x0,16]
	cmp	w1, w19
	bne	.L99
.LBB403:
.LBB404:
	.loc 2 352 0
	mov	x0, x21
.LVL95:
	bl	_raw_spin_unlock_bh
.LVL96:
.LBE404:
.LBE403:
	.loc 1 184 0
	ldr	x21, [sp,32]
	.cfi_remember_state
	.cfi_restore 21
	.loc 1 179 0
	mov	w0, 1
	.loc 1 184 0
	ldp	x19, x20, [sp,16]
	.cfi_restore 19
	.cfi_restore 20
.LVL97:
	ldp	x29, x30, [sp], 48
	.cfi_restore 29
	.cfi_restore 30
	.cfi_def_cfa 31, 0
	ret
.LVL98:
.L96:
	.cfi_restore_state
.LBB405:
.LBB406:
	.loc 2 352 0
	mov	x0, x21
.LVL99:
	bl	_raw_spin_unlock_bh
.LVL100:
.LBE406:
.LBE405:
	.loc 1 183 0
	mov	w0, 0
.L95:
	.loc 1 184 0
	ldp	x19, x20, [sp,16]
	.cfi_remember_state
	.cfi_restore 20
	.cfi_restore 19
.LVL101:
	ldr	x21, [sp,32]
	.cfi_restore 21
	ldp	x29, x30, [sp], 48
	.cfi_restore 30
	.cfi_restore 29
	.cfi_def_cfa 31, 0
	ret
.LVL102:
.L103:
	.cfi_restore_state
	.loc 1 172 0
	mov	w1, w0
	adrp	x0, .LC10
.LVL103:
	add	x0, x0, :lo12:.LC10
	bl	printk
.LVL104:
	.loc 1 173 0
	mov	w0, 0
	b	.L95
	.cfi_endproc
.LFE3906:
	.size	match_appdl_uid, .-match_appdl_uid
	.align	2
	.global	match_appdl_url
	.type	match_appdl_url, %function
match_appdl_url:
.LFB3907:
	.loc 1 187 0
	.cfi_startproc
.LVL105:
	stp	x29, x30, [sp, -32]!
	.cfi_def_cfa_offset 32
	.cfi_offset 29, -32
	.cfi_offset 30, -24
	add	x29, sp, 0
	.cfi_def_cfa_register 29
	stp	x19, x20, [sp,16]
	.cfi_offset 19, -16
	.cfi_offset 20, -8
	.loc 1 189 0
	bl	get_url_path
.LVL106:
	mov	x19, x0
.LVL107:
	.loc 1 191 0
	cbz	x0, .L107
	.loc 1 192 0
	bl	strlen
.LVL108:
	mov	x2, x0
	.loc 1 192 0 is_stmt 0 discriminator 1
	adrp	x1, .LC11
	mov	x0, x19
	add	x1, x1, :lo12:.LC11
	.loc 1 188 0 is_stmt 1
	mov	w20, 0
.LVL109:
	.loc 1 192 0 discriminator 1
	bl	strfindpos
.LVL110:
	.loc 1 192 0 is_stmt 0
	cbnz	x0, .L110
.L106:
	.loc 1 196 0 is_stmt 1
	mov	x0, x19
	bl	kfree
.LVL111:
	.loc 1 199 0
	mov	w0, w20
	ldp	x19, x20, [sp,16]
	.cfi_remember_state
	.cfi_restore 20
	.cfi_restore 19
.LVL112:
	ldp	x29, x30, [sp], 32
	.cfi_restore 30
	.cfi_restore 29
	.cfi_def_cfa 31, 0
	ret
.LVL113:
.L107:
	.cfi_restore_state
	.loc 1 188 0
	mov	w20, 0
.LVL114:
	.loc 1 199 0
	mov	w0, w20
.LVL115:
	ldp	x19, x20, [sp,16]
	.cfi_remember_state
	.cfi_restore 19
	.cfi_restore 20
.LVL116:
	ldp	x29, x30, [sp], 32
	.cfi_restore 29
	.cfi_restore 30
	.cfi_def_cfa 31, 0
	ret
.LVL117:
.L110:
	.cfi_restore_state
	.loc 1 194 0
	adrp	x0, .LC12
	mov	x1, x19
	add	x0, x0, :lo12:.LC12
	.loc 1 193 0
	mov	w20, 1
	.loc 1 194 0
	bl	printk
.LVL118:
	b	.L106
	.cfi_endproc
.LFE3907:
	.size	match_appdl_url, .-match_appdl_url
	.align	2
	.global	get_report_msg
	.type	get_report_msg, %function
get_report_msg:
.LFB3908:
	.loc 1 205 0
	.cfi_startproc
.LVL119:
	stp	x29, x30, [sp, -96]!
	.cfi_def_cfa_offset 96
	.cfi_offset 29, -96
	.cfi_offset 30, -88
	add	x29, sp, 0
	.cfi_def_cfa_register 29
	stp	x19, x20, [sp,16]
	stp	x21, x22, [sp,32]
	stp	x23, x24, [sp,48]
	str	x25, [sp,64]
	.cfi_offset 19, -80
	.cfi_offset 20, -72
	.cfi_offset 21, -64
	.cfi_offset 22, -56
	.cfi_offset 23, -48
	.cfi_offset 24, -40
	.cfi_offset 25, -32
	.loc 1 212 0
	cbz	x2, .L123
	mov	w22, w0
	.loc 1 214 0
	mov	x0, x2
.LVL120:
	mov	w23, w1
	str	x2, [x29,88]
	bl	strlen
.LVL121:
	.loc 1 215 0
	add	w0, w0, 65
.LBB407:
.LBB408:
	.loc 5 504 0
	mov	w1, 32
.LBE408:
.LBE407:
	.loc 1 215 0
	sxtw	x20, w0
.LBB410:
.LBB409:
	.loc 5 504 0
	movk	w1, 0x208, lsl 16
	mov	x0, x20
	bl	__kmalloc
.LVL122:
	mov	x21, x0
.LBE409:
.LBE410:
	.loc 1 216 0
	cbz	x0, .L123
	.loc 1 218 0
	ldr	x3, [x29,88]
.LVL123:
	adrp	x2, .LC13
	mov	x1, x20
	add	x2, x2, :lo12:.LC13
	bl	snprintf
.LVL124:
	.loc 1 219 0
	mov	x0, x21
	bl	strlen
.LVL125:
	.loc 1 220 0
	cmp	w0, 3999
	.loc 1 219 0
	mov	w25, w0
	.loc 1 220 0
	bgt	.L115
	.loc 1 222 0
	lsl	w19, w0, 1
.LBB411:
.LBB412:
	.loc 5 504 0
	mov	w1, 32
.LBE412:
.LBE411:
	.loc 1 222 0
	add	w24, w19, 1
.LBB420:
.LBB416:
	.loc 5 504 0
	movk	w1, 0x208, lsl 16
	sxtw	x0, w24
	bl	__kmalloc
.LVL126:
	mov	x20, x0
.L118:
.LBE416:
.LBE420:
	.loc 1 224 0
	mov	x0, x21
	.loc 1 223 0
	cbz	x20, .L124
	.loc 1 228 0
	mov	w3, w24
	mov	w1, w25
	mov	x2, x20
	.loc 1 231 0
	add	w24, w19, 33
	.loc 1 228 0
	bl	byte_to_hex
.LVL127:
	.loc 1 229 0
	strb	wzr, [x20,w19,sxtw]
.LBB421:
.LBB422:
	.loc 5 504 0
	mov	w1, 32
	mov	x0, x24
	movk	w1, 0x208, lsl 16
	bl	__kmalloc
.LVL128:
	mov	x19, x0
.LBE422:
.LBE421:
	.loc 1 232 0
	cbnz	x0, .L117
	.loc 1 233 0
	mov	x0, x21
	bl	kfree
.LVL129:
	.loc 1 234 0
	mov	x0, x20
	bl	kfree
.LVL130:
.L123:
	.loc 1 235 0
	mov	x0, 0
.L122:
	.loc 1 244 0
	ldp	x19, x20, [sp,16]
	.cfi_remember_state
	.cfi_restore 20
	.cfi_restore 19
	ldp	x21, x22, [sp,32]
	.cfi_restore 22
	.cfi_restore 21
.LVL131:
	ldp	x23, x24, [sp,48]
	.cfi_restore 24
	.cfi_restore 23
	ldr	x25, [sp,64]
	.cfi_restore 25
	ldp	x29, x30, [sp], 96
	.cfi_restore 30
	.cfi_restore 29
	.cfi_def_cfa 31, 0
	ret
.LVL132:
.L115:
	.cfi_restore_state
.LBB423:
.LBB417:
.LBB413:
	.loc 5 499 0
	adrp	x0, kmalloc_caches+104
	mov	w1, 32
	movk	w1, 0x208, lsl 16
	mov	x2, 8001
.LBE413:
.LBE417:
.LBE423:
	.loc 1 222 0
	mov	w24, 8001
	mov	w19, 8000
.LBB424:
.LBB418:
.LBB414:
	.loc 5 499 0
	ldr	x0, [x0,#:lo12:kmalloc_caches+104]
.LBE414:
.LBE418:
.LBE424:
	.loc 1 221 0
	mov	w25, 4000
.LBB425:
.LBB419:
.LBB415:
	.loc 5 499 0
	bl	kmem_cache_alloc_trace
.LVL133:
	mov	x20, x0
	b	.L118
.L117:
.LBE415:
.LBE419:
.LBE425:
	.loc 1 237 0
	mov	w1, 0
	mov	x2, x24
	bl	memset
.LVL134:
	.loc 1 238 0
	adrp	x2, .LC15
	mov	w4, w23
	mov	x5, x20
	mov	x1, x24
	add	x2, x2, :lo12:.LC15
	mov	w3, w22
	mov	x0, x19
	bl	snprintf
.LVL135:
	.loc 1 239 0
	mov	x0, x19
	bl	strlen
.LVL136:
	.loc 1 240 0
	mov	w2, w0
	adrp	x0, .LC16
	mov	w1, w22
	mov	x3, x19
	add	x0, x0, :lo12:.LC16
	bl	printk
.LVL137:
	.loc 1 241 0
	mov	x0, x20
	bl	kfree
.LVL138:
	.loc 1 242 0
	mov	x0, x21
	bl	kfree
.LVL139:
	.loc 1 243 0
	mov	x0, x19
	b	.L122
.L124:
	.loc 1 224 0
	bl	kfree
.LVL140:
	.loc 1 225 0
	adrp	x0, .LC14
	add	x0, x0, :lo12:.LC14
	bl	printk
.LVL141:
	.loc 1 226 0
	mov	x0, 0
	b	.L122
	.cfi_endproc
.LFE3908:
	.size	get_report_msg, .-get_report_msg
	.align	2
	.global	new_dl_monitor
	.type	new_dl_monitor, %function
new_dl_monitor:
.LFB3909:
	.loc 1 247 0
	.cfi_startproc
.LVL142:
	stp	x29, x30, [sp, -64]!
	.cfi_def_cfa_offset 64
	.cfi_offset 29, -64
	.cfi_offset 30, -56
	add	x29, sp, 0
	.cfi_def_cfa_register 29
	stp	x23, x24, [sp,48]
	.cfi_offset 23, -16
	.cfi_offset 24, -8
	mov	w24, w0
	.loc 1 249 0
	mov	x0, x2
.LVL143:
	.loc 1 247 0
	stp	x19, x20, [sp,16]
	stp	x21, x22, [sp,32]
	.cfi_offset 19, -48
	.cfi_offset 20, -40
	.cfi_offset 21, -32
	.cfi_offset 22, -24
	.loc 1 247 0
	mov	x22, x2
	mov	w21, w1
	.loc 1 249 0
	bl	strlen
.LVL144:
	mov	x20, x0
.LBB426:
.LBB427:
	.loc 5 499 0
	adrp	x0, kmalloc_caches+56
	mov	w1, 32
	movk	w1, 0x208, lsl 16
	mov	x2, 112
	ldr	x0, [x0,#:lo12:kmalloc_caches+56]
	bl	kmem_cache_alloc_trace
.LVL145:
	mov	x19, x0
.LBE427:
.LBE426:
	.loc 1 252 0
	cbz	x0, .L128
	.loc 1 256 0
	add	w0, w20, 1
.LBB428:
.LBB429:
	.loc 5 504 0
	mov	w1, 32
.LBE429:
.LBE428:
	.loc 1 255 0
	mov	w2, 1
.LBB433:
.LBB430:
	.loc 5 504 0
	movk	w1, 0x208, lsl 16
	sxtw	x0, w0
.LBE430:
.LBE433:
	.loc 1 254 0
	str	w21, [x19,80]
	.loc 1 255 0
	str	w2, [x19,108]
.LBB434:
.LBB431:
	.loc 5 504 0
	bl	__kmalloc
.LVL146:
.LBE431:
.LBE434:
	.loc 1 256 0
	str	x0, [x19,96]
.LBB435:
.LBB432:
	.loc 5 504 0
	mov	x21, x0
.LVL147:
.LBE432:
.LBE435:
	.loc 1 257 0
	cbz	x0, .L129
	.loc 1 261 0
	sxtw	x23, w20
	mov	x1, x22
	mov	x2, x23
	bl	memcpy
.LVL148:
	.loc 1 262 0
	strb	wzr, [x21,x23]
	.loc 1 263 0
	str	w20, [x19,104]
	.loc 1 267 0
	mov	x0, x19
	.loc 1 264 0
	str	w24, [x19,76]
	.loc 1 265 0
	strb	wzr, [x19,72]
.LVL149:
.L126:
	.loc 1 268 0
	ldp	x19, x20, [sp,16]
	.cfi_remember_state
	.cfi_restore 20
	.cfi_restore 19
	ldp	x21, x22, [sp,32]
	.cfi_restore 22
	.cfi_restore 21
.LVL150:
	ldp	x23, x24, [sp,48]
	.cfi_restore 24
	.cfi_restore 23
.LVL151:
	ldp	x29, x30, [sp], 64
	.cfi_restore 30
	.cfi_restore 29
	.cfi_def_cfa 31, 0
	ret
.LVL152:
.L128:
	.cfi_restore_state
	.loc 1 253 0
	mov	x0, 0
	b	.L126
.LVL153:
.L129:
	.loc 1 258 0
	mov	x0, x19
	bl	kfree
.LVL154:
	.loc 1 259 0
	mov	x0, 0
	b	.L126
	.cfi_endproc
.LFE3909:
	.size	new_dl_monitor, .-new_dl_monitor
	.align	2
	.global	free_download_monitor
	.type	free_download_monitor, %function
free_download_monitor:
.LFB3910:
	.loc 1 271 0
	.cfi_startproc
.LVL155:
	stp	x29, x30, [sp, -32]!
	.cfi_def_cfa_offset 32
	.cfi_offset 29, -32
	.cfi_offset 30, -24
	add	x29, sp, 0
	.cfi_def_cfa_register 29
	str	x19, [sp,16]
	.cfi_offset 19, -16
	.loc 1 271 0
	mov	x19, x0
	.loc 1 272 0
	ldr	x0, [x0,96]
.LVL156:
	bl	kfree
.LVL157:
	.loc 1 273 0
	mov	x0, x19
	bl	kfree
.LVL158:
	.loc 1 274 0
	ldr	x19, [sp,16]
	.cfi_restore 19
.LVL159:
	ldp	x29, x30, [sp], 32
	.cfi_restore 30
	.cfi_restore 29
	.cfi_def_cfa 31, 0
	ret
	.cfi_endproc
.LFE3910:
	.size	free_download_monitor, .-free_download_monitor
	.align	2
	.global	get_select
	.type	get_select, %function
get_select:
.LFB3911:
	.loc 1 278 0
	.cfi_startproc
.LVL160:
	stp	x29, x30, [sp, -48]!
	.cfi_def_cfa_offset 48
	.cfi_offset 29, -48
	.cfi_offset 30, -40
	add	x29, sp, 0
	.cfi_def_cfa_register 29
	stp	x21, x22, [sp,32]
	.cfi_offset 21, -16
	.cfi_offset 22, -8
.LBB436:
.LBB437:
	.loc 2 307 0
	adrp	x22, .LANCHOR0
.LBE437:
.LBE436:
	.loc 1 278 0
	mov	x21, x0
.LBB440:
.LBB438:
	.loc 2 307 0
	add	x22, x22, :lo12:.LANCHOR0
	mov	x0, x22
.LVL161:
.LBE438:
.LBE440:
	.loc 1 278 0
	stp	x19, x20, [sp,16]
	.cfi_offset 19, -32
	.cfi_offset 20, -24
.LBB441:
.LBB439:
	.loc 2 307 0
	bl	_raw_spin_lock_bh
.LVL162:
.LBE439:
.LBE441:
.LBB442:
	.loc 1 284 0
	ldr	x1, [x22,24]
	add	x3, x22, 24
.LBE442:
	.loc 1 284 0 is_stmt 0 discriminator 1
	cmp	x1, x3
	beq	.L132
	mov	w20, 0
.LVL163:
	mov	x19, 0
	mov	x0, x22
.L133:
	.loc 1 285 0 is_stmt 1
	ldr	x2, [x1,88]
	cmp	x2, x21
	csel	x19, x1, x19, eq
.LBB443:
	.loc 1 284 0 discriminator 2
	ldr	x1, [x1]
	cmp	x2, x21
	csinc	w20, w20, wzr, ne
.LBE443:
	.loc 1 284 0 is_stmt 0 discriminator 1
	cmp	x1, x3
	bne	.L133
.LBB444:
.LBB445:
	.loc 2 352 0 is_stmt 1
	bl	_raw_spin_unlock_bh
.LVL164:
.LBE445:
.LBE444:
	.loc 1 291 0
	cmp	x19, xzr
	.loc 1 292 0
	mov	w0, 0
	.loc 1 291 0
	cset	w1, eq
	cmp	w1, w20
	bcc	.L141
.L139:
	.loc 1 306 0
	ldp	x19, x20, [sp,16]
	.cfi_remember_state
	.cfi_restore 20
	.cfi_restore 19
.LVL165:
	ldp	x21, x22, [sp,32]
	.cfi_restore 22
	.cfi_restore 21
.LVL166:
	ldp	x29, x30, [sp], 48
	.cfi_restore 30
	.cfi_restore 29
	.cfi_def_cfa 31, 0
	ret
.LVL167:
.L141:
	.cfi_restore_state
	.loc 1 293 0
	bl	get_cur_time
.LVL168:
	ldr	x1, [x19,16]
	sub	x1, x0, x1
	mov	x0, 12000
	cmp	x1, x0
	.loc 1 294 0
	ldr	w1, [x19,108]
	.loc 1 293 0
	bls	.L135
	.loc 1 293 0 is_stmt 0 discriminator 1
	cmp	w1, 1
	bne	.L136
	.loc 1 295 0 is_stmt 1
	mov	w0, 2
	str	w0, [x19,108]
	.loc 1 296 0
	b	.L139
.L135:
	.loc 1 298 0
	cmp	w1, 1
	beq	.L142
.L136:
	.loc 1 302 0
	ldr	w3, [x19,80]
	adrp	x0, .LC18
	add	x0, x0, :lo12:.LC18
	mov	x2, x21
	bl	printk
.LVL169:
	.loc 1 305 0
	ldr	w0, [x19,108]
.L143:
	.loc 1 306 0
	ldp	x19, x20, [sp,16]
	.cfi_remember_state
	.cfi_restore 19
	.cfi_restore 20
.LVL170:
	ldp	x21, x22, [sp,32]
	.cfi_restore 21
	.cfi_restore 22
.LVL171:
	ldp	x29, x30, [sp], 48
	.cfi_restore 29
	.cfi_restore 30
	.cfi_def_cfa 31, 0
	ret
.LVL172:
.L132:
	.cfi_restore_state
.LBB447:
.LBB446:
	.loc 2 352 0
	mov	x0, x22
	bl	_raw_spin_unlock_bh
.LVL173:
.LBE446:
.LBE447:
	.loc 1 292 0
	mov	w0, 0
	b	.L139
.LVL174:
.L142:
	.loc 1 299 0
	ldr	w2, [x19,80]
	adrp	x0, .LC17
	add	x0, x0, :lo12:.LC17
	mov	x1, x21
	bl	printk
.LVL175:
	.loc 1 305 0
	ldr	w0, [x19,108]
	b	.L143
	.cfi_endproc
.LFE3911:
	.size	get_select, .-get_select
	.align	2
	.global	get_download_monitor
	.type	get_download_monitor, %function
get_download_monitor:
.LFB3913:
	.loc 1 332 0
	.cfi_startproc
.LVL176:
	stp	x29, x30, [sp, -112]!
	.cfi_def_cfa_offset 112
	.cfi_offset 29, -112
	.cfi_offset 30, -104
	add	x29, sp, 0
	.cfi_def_cfa_register 29
	stp	x19, x20, [sp,16]
	.cfi_offset 19, -96
	.cfi_offset 20, -88
	mov	x19, x0
	.loc 1 337 0
	mov	x0, x2
.LVL177:
	.loc 1 332 0
	stp	x25, x26, [sp,64]
	.loc 1 337 0
	str	x2, [x29,104]
	.cfi_offset 25, -48
	.cfi_offset 26, -40
.LBB448:
.LBB449:
	.loc 2 307 0
	adrp	x25, .LANCHOR0
.LBE449:
.LBE448:
	.loc 1 332 0
	stp	x21, x22, [sp,32]
	stp	x23, x24, [sp,48]
	.cfi_offset 21, -80
	.cfi_offset 22, -72
	.cfi_offset 23, -64
	.cfi_offset 24, -56
	mov	w21, w1
	stp	x27, x28, [sp,80]
	.cfi_offset 27, -32
	.cfi_offset 28, -24
	.loc 1 337 0
	bl	strlen
.LVL178:
	mov	w24, w0
.LVL179:
.LBB451:
.LBB450:
	.loc 2 307 0
	add	x0, x25, :lo12:.LANCHOR0
	bl	_raw_spin_lock_bh
.LVL180:
.LBE450:
.LBE451:
	.loc 1 340 0
	adrp	x0, .LANCHOR2
	.loc 1 341 0
	mov	w1, 11520
	.loc 1 340 0
	add	x0, x0, :lo12:.LANCHOR2
	.loc 1 341 0
	movk	w1, 0x131, lsl 16
	ldr	x2, [x29,104]
.LVL181:
	.loc 1 340 0
	ldr	w26, [x0,1624]
.LVL182:
	add	w3, w26, 1
	.loc 1 341 0
	cmp	w3, w1
	bhi	.L145
	.loc 1 340 0
	str	w3, [x0,1624]
.L146:
	.loc 1 343 0
	mov	w0, w21
	mov	w1, w26
	bl	new_dl_monitor
.LVL183:
	mov	x23, x0
.LVL184:
	.loc 1 344 0
	cbz	x0, .L162
	.loc 1 348 0
	str	x19, [x0,88]
	.loc 1 349 0
	bl	get_cur_time
.LVL185:
	str	x0, [x23,16]
.LBB452:
.LBB453:
	.loc 3 63 0
	add	x1, x25, :lo12:.LANCHOR0
	add	x20, x1, 24
	ldr	x0, [x1,24]
.LBB454:
.LBB455:
	.loc 3 42 0
	str	x23, [x0,8]
	.loc 3 43 0
	str	x0, [x23]
.LBB456:
.LBB457:
.LBB458:
	.loc 4 276 0
	str	x23, [x1,24]
.LBE458:
.LBE457:
.LBE456:
	.loc 3 44 0
	str	x20, [x23,8]
.LBE455:
.LBE454:
.LBE453:
.LBE452:
.LBB459:
	.loc 1 351 0
	ldr	x19, [x1,24]
.LVL186:
.LBE459:
	.loc 1 351 0 is_stmt 0 discriminator 1
	cmp	x19, x20
	beq	.L149
	ldr	w22, [x23,76]
	.loc 1 355 0 is_stmt 1
	sxtw	x27, w24
	ldr	w28, [x23,80]
	b	.L153
.L150:
.LBB460:
	.loc 1 351 0 discriminator 2
	ldr	x19, [x19]
.LBE460:
	.loc 1 351 0 is_stmt 0 discriminator 1
	cmp	x19, x20
	beq	.L163
.L153:
	.loc 1 352 0 is_stmt 1
	cmp	w21, w22
	bne	.L150
	.loc 1 353 0
	ldr	w0, [x19,80]
	cmp	w0, w28
	beq	.L150
	.loc 1 354 0
	ldr	w0, [x19,104]
	cmp	w0, w24
	bne	.L150
	.loc 1 355 0
	ldr	x1, [x19,96]
	mov	x2, x27
	ldr	x0, [x23,96]
	bl	memcmp
.LVL187:
	cbnz	w0, .L150
	.loc 1 356 0
	mov	w0, 1
	strb	w0, [x23,72]
	.loc 1 359 0
	ldr	w0, [x19,108]
	.loc 1 358 0
	ldr	w26, [x19,80]
.LVL188:
	.loc 1 359 0
	str	w0, [x23,108]
	.loc 1 366 0
	cbz	x19, .L152
	.loc 1 367 0
	bl	get_cur_time
.LVL189:
	ldr	x1, [x19,16]
	sub	x1, x0, x1
	mov	x0, 12000
	cmp	x1, x0
	bls	.L149
	ldr	w28, [x23,80]
	.loc 1 368 0
	strb	wzr, [x23,72]
.LVL190:
.L156:
	.loc 1 373 0
	adrp	x0, .LC20
	mov	w1, w28
	add	x0, x0, :lo12:.LC20
	bl	printk
.LVL191:
	b	.L157
.L163:
	ldrb	w0, [x23,72]
	.loc 1 370 0
	cbz	w0, .L156
.L152:
	.loc 1 371 0
	adrp	x0, .LC19
	mov	w1, w28
	add	x0, x0, :lo12:.LC19
	mov	w2, w26
	bl	printk
.LVL192:
.L157:
.LBB461:
.LBB462:
	.loc 2 352 0
	add	x0, x25, :lo12:.LANCHOR0
	bl	_raw_spin_unlock_bh
.LVL193:
.LBE462:
.LBE461:
	.loc 1 375 0
	mov	x0, x23
.LVL194:
.L148:
	.loc 1 376 0
	ldp	x19, x20, [sp,16]
	.cfi_remember_state
	.cfi_restore 20
	.cfi_restore 19
.LVL195:
	ldp	x21, x22, [sp,32]
	.cfi_restore 22
	.cfi_restore 21
.LVL196:
	ldp	x23, x24, [sp,48]
	.cfi_restore 24
	.cfi_restore 23
.LVL197:
	ldp	x25, x26, [sp,64]
	.cfi_restore 26
	.cfi_restore 25
.LVL198:
	ldp	x27, x28, [sp,80]
	.cfi_restore 28
	.cfi_restore 27
	ldp	x29, x30, [sp], 112
	.cfi_restore 30
	.cfi_restore 29
	.cfi_def_cfa 31, 0
	ret
.LVL199:
.L145:
	.cfi_restore_state
	.loc 1 342 0
	mov	w1, 1000
	str	w1, [x0,1624]
	b	.L146
.LVL200:
.L149:
	ldrb	w0, [x23,72]
	ldr	w28, [x23,80]
	.loc 1 370 0
	cbnz	w0, .L152
	b	.L156
.LVL201:
.L162:
.LBB463:
.LBB464:
	.loc 2 352 0
	add	x0, x25, :lo12:.LANCHOR0
.LVL202:
	bl	_raw_spin_unlock_bh
.LVL203:
.LBE464:
.LBE463:
	.loc 1 346 0
	mov	x0, 0
	b	.L148
	.cfi_endproc
.LFE3913:
	.size	get_download_monitor, .-get_download_monitor
	.align	2
	.global	nofity_loop
	.type	nofity_loop, %function
nofity_loop:
.LFB3914:
	.loc 1 379 0
	.cfi_startproc
.LVL204:
	stp	x29, x30, [sp, -96]!
	.cfi_def_cfa_offset 96
	.cfi_offset 29, -96
	.cfi_offset 30, -88
	add	x29, sp, 0
	.cfi_def_cfa_register 29
	stp	x21, x22, [sp,32]
	.cfi_offset 21, -64
	.cfi_offset 22, -56
	mov	w21, w0
	.loc 1 381 0
	mov	x0, x2
.LVL205:
	.loc 1 379 0
	stp	x19, x20, [sp,16]
	stp	x23, x24, [sp,48]
	stp	x25, x26, [sp,64]
	str	x27, [sp,80]
	.cfi_offset 19, -80
	.cfi_offset 20, -72
	.cfi_offset 23, -48
	.cfi_offset 24, -40
	.cfi_offset 25, -32
	.cfi_offset 26, -24
	.cfi_offset 27, -16
	.loc 1 379 0
	mov	x22, x2
	mov	w23, w1
	mov	w24, w3
	.loc 1 381 0
	bl	strlen
.LVL206:
	mov	w26, w0
.LVL207:
.LBB465:
	.loc 1 383 0
	adrp	x0, .LANCHOR0
	add	x0, x0, :lo12:.LANCHOR0
	add	x20, x0, 24
	ldr	x19, [x0,24]
.LVL208:
.LBE465:
	.loc 1 383 0 is_stmt 0 discriminator 1
	cmp	x19, x20
	beq	.L164
	.loc 1 388 0 is_stmt 1
	adrp	x25, .LC21
	.loc 1 385 0
	sxtw	x27, w26
	.loc 1 388 0
	add	x25, x25, :lo12:.LC21
	b	.L169
.L166:
.LBB466:
	.loc 1 383 0 discriminator 2
	ldr	x19, [x19]
.LBE466:
	.loc 1 383 0 is_stmt 0 discriminator 1
	cmp	x19, x20
	beq	.L164
.L169:
	.loc 1 384 0 is_stmt 1
	ldr	w0, [x19,76]
	cmp	w0, w21
	bne	.L166
	.loc 1 384 0 is_stmt 0 discriminator 1
	ldr	w0, [x19,104]
	cmp	w0, w26
	bne	.L166
	.loc 1 385 0 is_stmt 1
	ldr	x0, [x19,96]
	mov	x1, x22
	mov	x2, x27
	bl	memcmp
.LVL209:
	.loc 1 384 0 discriminator 2
	cbnz	w0, .L166
	.loc 1 386 0
	ldr	w2, [x19,80]
	.loc 1 385 0
	cmp	w2, w23
	beq	.L166
	.loc 1 387 0
	str	w24, [x19,108]
	.loc 1 388 0
	mov	x0, x25
	mov	w1, w21
	mov	w3, w24
	bl	printk
.LVL210:
	b	.L166
.L164:
	.loc 1 394 0
	ldp	x19, x20, [sp,16]
	.cfi_restore 20
	.cfi_restore 19
.LVL211:
	ldp	x21, x22, [sp,32]
	.cfi_restore 22
	.cfi_restore 21
.LVL212:
	ldp	x23, x24, [sp,48]
	.cfi_restore 24
	.cfi_restore 23
.LVL213:
	ldp	x25, x26, [sp,64]
	.cfi_restore 26
	.cfi_restore 25
.LVL214:
	ldr	x27, [sp,80]
	.cfi_restore 27
	ldp	x29, x30, [sp], 96
	.cfi_restore 30
	.cfi_restore 29
	.cfi_def_cfa 31, 0
	ret
	.cfi_endproc
.LFE3914:
	.size	nofity_loop, .-nofity_loop
	.align	2
	.global	download_notify
	.type	download_notify, %function
download_notify:
.LFB3915:
	.loc 1 397 0
	.cfi_startproc
.LVL215:
	stp	x29, x30, [sp, -64]!
	.cfi_def_cfa_offset 64
	.cfi_offset 29, -64
	.cfi_offset 30, -56
	.loc 1 400 0
	cmp	w0, 999
	.loc 1 397 0
	add	x29, sp, 0
	.cfi_def_cfa_register 29
	stp	x19, x20, [sp,16]
	stp	x21, x22, [sp,32]
	str	x23, [sp,48]
	.cfi_offset 19, -48
	.cfi_offset 20, -40
	.cfi_offset 21, -32
	.cfi_offset 22, -24
	.cfi_offset 23, -16
	.loc 1 400 0
	bgt	.L183
.LVL216:
.L171:
	.loc 1 419 0
	ldp	x19, x20, [sp,16]
	.cfi_remember_state
	.cfi_restore 20
	.cfi_restore 19
.LVL217:
	ldp	x21, x22, [sp,32]
	.cfi_restore 22
	.cfi_restore 21
	ldr	x23, [sp,48]
	.cfi_restore 23
	ldp	x29, x30, [sp], 64
	.cfi_restore 30
	.cfi_restore 29
	.cfi_def_cfa 31, 0
	ret
.L183:
	.cfi_restore_state
.LBB467:
.LBB468:
	.loc 2 307 0
	adrp	x23, .LANCHOR0
	mov	w20, w0
	add	x21, x23, :lo12:.LANCHOR0
	mov	x22, x1
	mov	x0, x21
.LVL218:
	bl	_raw_spin_lock_bh
.LVL219:
.LBE468:
.LBE467:
.LBB469:
	.loc 1 403 0
	ldr	x19, [x21,24]
.LVL220:
	add	x0, x21, 24
.LBE469:
	.loc 1 403 0 is_stmt 0 discriminator 1
	cmp	x19, x0
	beq	.L173
	.loc 1 404 0 is_stmt 1
	ldr	w1, [x19,80]
	cmp	w20, w1
	beq	.L174
.L176:
.LBB470:
	.loc 1 403 0 discriminator 2
	ldr	x19, [x19]
.LBE470:
	.loc 1 403 0 is_stmt 0 discriminator 1
	cmp	x19, x0
	beq	.L173
	.loc 1 404 0 is_stmt 1
	ldr	w3, [x19,80]
	cmp	w3, w20
	bne	.L176
.L174:
	.loc 1 405 0
	adrp	x1, .LC22
	mov	x0, x22
	add	x1, x1, :lo12:.LC22
	mov	x2, 5
	bl	memcmp
.LVL221:
	cbz	w0, .L184
	.loc 1 409 0
	mov	w1, 3
	.loc 1 410 0
	adrp	x0, .LC24
	.loc 1 409 0
	str	w1, [x19,108]
	.loc 1 410 0
	add	x0, x0, :lo12:.LC24
	mov	w1, w20
	bl	printk
.LVL222:
.L178:
	.loc 1 412 0
	ldr	x2, [x19,96]
	mov	w1, w20
	ldr	w3, [x19,108]
	ldr	w0, [x19,76]
	bl	nofity_loop
.LVL223:
.LBB471:
.LBB472:
	.loc 2 352 0
	add	x0, x23, :lo12:.LANCHOR0
	bl	_raw_spin_unlock_bh
.LVL224:
.LBE472:
.LBE471:
	.loc 1 419 0
	ldr	x23, [sp,48]
	.cfi_remember_state
	.cfi_restore 23
	ldp	x19, x20, [sp,16]
	.cfi_restore 19
	.cfi_restore 20
.LVL225:
	ldp	x21, x22, [sp,32]
	.cfi_restore 21
	.cfi_restore 22
.LVL226:
	ldp	x29, x30, [sp], 64
	.cfi_restore 29
	.cfi_restore 30
	.cfi_def_cfa 31, 0
	ret
.LVL227:
.L184:
	.cfi_restore_state
	.loc 1 406 0
	mov	w1, 2
	.loc 1 407 0
	adrp	x0, .LC23
	.loc 1 406 0
	str	w1, [x19,108]
	.loc 1 407 0
	add	x0, x0, :lo12:.LC23
	mov	w1, w20
	bl	printk
.LVL228:
	b	.L178
.L173:
.LBB473:
.LBB474:
	.loc 2 352 0
	add	x0, x23, :lo12:.LANCHOR0
	bl	_raw_spin_unlock_bh
.LVL229:
.LBE474:
.LBE473:
	.loc 1 418 0
	adrp	x0, .LC25
	mov	w1, w20
	mov	x2, x22
	add	x0, x0, :lo12:.LC25
	bl	printk
.LVL230:
	b	.L171
	.cfi_endproc
.LFE3915:
	.size	download_notify, .-download_notify
	.align	2
	.global	free_node
	.type	free_node, %function
free_node:
.LFB3916:
	.loc 1 422 0
	.cfi_startproc
.LVL231:
	stp	x29, x30, [sp, -32]!
	.cfi_def_cfa_offset 32
	.cfi_offset 29, -32
	.cfi_offset 30, -24
	add	x29, sp, 0
	.cfi_def_cfa_register 29
	stp	x19, x20, [sp,16]
	.cfi_offset 19, -16
	.cfi_offset 20, -8
.LBB475:
.LBB476:
	.loc 2 307 0
	adrp	x20, .LANCHOR0
.LBE476:
.LBE475:
	.loc 1 422 0
	mov	x19, x0
.LBB478:
.LBB477:
	.loc 2 307 0
	add	x20, x20, :lo12:.LANCHOR0
	mov	x0, x20
.LVL232:
	bl	_raw_spin_lock_bh
.LVL233:
.LBE477:
.LBE478:
.LBB479:
.LBB480:
	.loc 3 107 0
	ldr	x3, [x19]
	.loc 3 108 0
	mov	x2, 256
	.loc 3 107 0
	ldr	x0, [x19,8]
	.loc 3 109 0
	mov	x1, 512
	.loc 3 108 0
	movk	x2, 0xdead, lsl 48
	.loc 3 109 0
	movk	x1, 0xdead, lsl 48
.LBB481:
.LBB482:
	.loc 3 89 0
	str	x0, [x3,8]
.LBB483:
.LBB484:
.LBB485:
	.loc 4 276 0
	str	x3, [x0]
.LBE485:
.LBE484:
.LBE483:
.LBE482:
.LBE481:
.LBE480:
.LBE479:
.LBB487:
.LBB488:
	.loc 2 352 0
	mov	x0, x20
.LBE488:
.LBE487:
.LBB490:
.LBB486:
	.loc 3 108 0
	str	x2, [x19]
	.loc 3 109 0
	str	x1, [x19,8]
.LBE486:
.LBE490:
.LBB491:
.LBB489:
	.loc 2 352 0
	bl	_raw_spin_unlock_bh
.LVL234:
.LBE489:
.LBE491:
.LBB492:
.LBB493:
	.loc 1 272 0
	ldr	x0, [x19,96]
	bl	kfree
.LVL235:
	.loc 1 273 0
	mov	x0, x19
	bl	kfree
.LVL236:
.LBE493:
.LBE492:
	.loc 1 427 0
	ldp	x19, x20, [sp,16]
	.cfi_restore 20
	.cfi_restore 19
.LVL237:
	ldp	x29, x30, [sp], 32
	.cfi_restore 30
	.cfi_restore 29
	.cfi_def_cfa 31, 0
	ret
	.cfi_endproc
.LFE3916:
	.size	free_node, .-free_node
	.align	2
	.global	wait_user_event
	.type	wait_user_event, %function
wait_user_event:
.LFB3917:
	.loc 1 430 0
	.cfi_startproc
.LVL238:
	stp	x29, x30, [sp, -112]!
	.cfi_def_cfa_offset 112
	.cfi_offset 29, -112
	.cfi_offset 30, -104
	add	x29, sp, 0
	.cfi_def_cfa_register 29
	stp	x23, x24, [sp,48]
	.cfi_offset 23, -64
	.cfi_offset 24, -56
	.loc 1 438 0
	adrp	x24, .LANCHOR2
	.loc 1 430 0
	str	x25, [sp,64]
	stp	x19, x20, [sp,16]
	.cfi_offset 25, -48
	.cfi_offset 19, -96
	.cfi_offset 20, -88
	.loc 1 438 0
	add	x19, x24, :lo12:.LANCHOR2
	.loc 1 430 0
	stp	x21, x22, [sp,32]
	.cfi_offset 21, -80
	.cfi_offset 22, -72
	.loc 1 430 0
	mov	x21, x0
	.loc 1 434 0
	bl	get_cur_time
.LVL239:
	.loc 1 438 0
	ldr	w1, [x19,1628]
	.loc 1 434 0
	mov	x22, x0
.LVL240:
	.loc 1 438 0
	cmp	w1, 1
	bls	.L187
	.loc 1 439 0
	adrp	x0, .LC26
	.loc 1 440 0
	mov	w19, 0
	.loc 1 439 0
	add	x0, x0, :lo12:.LC26
	bl	printk
.LVL241:
	.loc 1 471 0
	ldr	x25, [sp,64]
	.cfi_remember_state
	.cfi_restore 25
	mov	w0, w19
	ldp	x19, x20, [sp,16]
	.cfi_restore 20
	.cfi_restore 19
	ldp	x21, x22, [sp,32]
	.cfi_restore 22
	.cfi_restore 21
.LVL242:
	ldp	x23, x24, [sp,48]
	.cfi_restore 24
	.cfi_restore 23
	ldp	x29, x30, [sp], 112
	.cfi_restore 30
	.cfi_restore 29
	.cfi_def_cfa 31, 0
	ret
.LVL243:
.L187:
	.cfi_restore_state
.LBB494:
.LBB495:
	.loc 2 307 0
	add	x25, x19, 1632
.LBE495:
.LBE494:
	.loc 1 446 0
	mov	x23, 11999
.LBB498:
.LBB496:
	.loc 2 307 0
	mov	x0, x25
.LBE496:
.LBE498:
	.loc 1 432 0
	mov	w20, 0
.LVL244:
.LBB499:
.LBB497:
	.loc 2 307 0
	bl	_raw_spin_lock_bh
.LVL245:
.LBE497:
.LBE499:
	.loc 1 443 0
	ldr	w1, [x19,1628]
.LBB500:
.LBB501:
	.loc 2 352 0
	mov	x0, x25
.LBE501:
.LBE500:
	.loc 1 443 0
	add	w1, w1, 1
	str	w1, [x19,1628]
.LBB503:
.LBB502:
	.loc 2 352 0
	bl	_raw_spin_unlock_bh
.LVL246:
.LBE502:
.LBE503:
	.loc 1 445 0
	ldr	w1, [x21,80]
	adrp	x0, .LC27
	ldr	w2, [x19,1628]
	add	x0, x0, :lo12:.LC27
	bl	printk
.LVL247:
	.loc 1 446 0
	bl	get_cur_time
.LVL248:
	sub	x0, x0, x22
	cmp	x0, x23
	bhi	.L199
.L192:
	.loc 1 447 0
	ldr	w0, [x21,108]
	cmp	w0, 1
	bne	.L190
	.loc 1 451 0
	add	w20, w20, 1
	mov	x19, 10
.L191:
.LBB504:
	.loc 1 452 0 discriminator 6
	mov	x0, 35160
	movk	x0, 0x41, lsl 16
	bl	__const_udelay
.LVL249:
	.loc 1 452 0 is_stmt 0 discriminator 8
	subs	x19, x19, #1
	bne	.L191
.LBE504:
	.loc 1 446 0 is_stmt 1
	bl	get_cur_time
.LVL250:
	sub	x0, x0, x22
	cmp	x0, x23
	bls	.L192
.L199:
.LBB505:
.LBB506:
	.loc 2 307 0
	add	x24, x24, :lo12:.LANCHOR2
	add	x19, x24, 1632
	mov	x0, x19
	bl	_raw_spin_lock_bh
.LVL251:
.LBE506:
.LBE505:
	.loc 1 455 0
	ldr	w1, [x24,1628]
.LBB508:
.LBB509:
	.loc 2 352 0
	mov	x0, x19
.LBE509:
.LBE508:
	.loc 1 455 0
	sub	w1, w1, #1
	str	w1, [x24,1628]
.LBB513:
.LBB510:
	.loc 2 352 0
	bl	_raw_spin_unlock_bh
.LVL252:
.LBE510:
.LBE513:
	.loc 1 463 0
	ldr	w1, [x21,80]
	ldr	w3, [x24,1628]
	str	x1, [x29,96]
	str	x3, [x29,104]
	bl	get_cur_time
.LVL253:
	sub	w4, w0, w22
	.loc 1 463 0 is_stmt 0 discriminator 1
	ldr	x1, [x29,96]
	adrp	x0, .LC29
	ldr	x3, [x29,104]
	add	x0, x0, :lo12:.LC29
	mov	w2, w20
	bl	printk
.LVL254:
	.loc 1 466 0 is_stmt 1
	mov	w0, 2
	str	w0, [x21,108]
	mov	w19, w0
.L194:
	.loc 1 469 0
	mov	x0, x21
	bl	free_node
.LVL255:
	.loc 1 471 0
	ldr	x25, [sp,64]
	.cfi_remember_state
	.cfi_restore 25
	mov	w0, w19
	ldp	x19, x20, [sp,16]
	.cfi_restore 19
	.cfi_restore 20
.LVL256:
	ldp	x21, x22, [sp,32]
	.cfi_restore 21
	.cfi_restore 22
.LVL257:
	ldp	x23, x24, [sp,48]
	.cfi_restore 23
	.cfi_restore 24
	ldp	x29, x30, [sp], 112
	.cfi_restore 29
	.cfi_restore 30
	.cfi_def_cfa 31, 0
	ret
.LVL258:
.L190:
	.cfi_restore_state
.LBB514:
.LBB507:
	.loc 2 307 0
	add	x24, x24, :lo12:.LANCHOR2
	add	x19, x24, 1632
	mov	x0, x19
	bl	_raw_spin_lock_bh
.LVL259:
.LBE507:
.LBE514:
	.loc 1 455 0
	ldr	w1, [x24,1628]
.LBB515:
.LBB511:
	.loc 2 352 0
	mov	x0, x19
.LBE511:
.LBE515:
	.loc 1 455 0
	sub	w1, w1, #1
	str	w1, [x24,1628]
.LBB516:
.LBB512:
	.loc 2 352 0
	bl	_raw_spin_unlock_bh
.LVL260:
.LBE512:
.LBE516:
	.loc 1 459 0
	ldr	w1, [x21,80]
	ldr	w2, [x21,108]
	ldr	w3, [x24,1628]
	str	x1, [x29,88]
	str	x2, [x29,96]
	str	x3, [x29,104]
	bl	get_cur_time
.LVL261:
	.loc 1 459 0 is_stmt 0 discriminator 1
	ldr	x1, [x29,88]
	.loc 1 459 0
	sub	w4, w0, w22
	.loc 1 459 0 discriminator 1
	ldr	x2, [x29,96]
	adrp	x0, .LC28
	ldr	x3, [x29,104]
	add	x0, x0, :lo12:.LC28
	bl	printk
.LVL262:
	ldr	w19, [x21,108]
	b	.L194
	.cfi_endproc
.LFE3917:
	.size	wait_user_event, .-wait_user_event
	.align	2
	.global	init_appdl
	.type	init_appdl, %function
init_appdl:
.LFB3918:
	.loc 1 474 0 is_stmt 1
	.cfi_startproc
	stp	x29, x30, [sp, -80]!
	.cfi_def_cfa_offset 80
	.cfi_offset 29, -80
	.cfi_offset 30, -72
	.loc 1 477 0
	adrp	x0, .LANCHOR2
	mov	w1, 1000
	.loc 1 474 0
	add	x29, sp, 0
	.cfi_def_cfa_register 29
	stp	x19, x20, [sp,16]
	.loc 1 477 0
	add	x0, x0, :lo12:.LANCHOR2
	.cfi_offset 19, -64
	.cfi_offset 20, -56
	adrp	x19, .LANCHOR1
	.loc 1 474 0
	stp	x23, x24, [sp,48]
	add	x19, x19, :lo12:.LANCHOR1
	.cfi_offset 23, -32
	.cfi_offset 24, -24
	adrp	x24, .LANCHOR0
	stp	x21, x22, [sp,32]
	str	x25, [sp,64]
	.cfi_offset 21, -48
	.cfi_offset 22, -40
	.cfi_offset 25, -16
	add	x19, x19, 1880
	add	x20, x24, :lo12:.LANCHOR0
.LBB517:
	.loc 1 482 0 discriminator 1
	adrp	x22, .LC30
	mov	x25, x0
.LBE517:
	.loc 1 478 0
	str	wzr, [x0,1656]
	add	x20, x20, 88
	.loc 1 477 0
	str	w1, [x0,1624]
	add	x23, x19, 4096
	.loc 1 479 0
	str	wzr, [x0,1628]
.LBB518:
	.loc 1 482 0 discriminator 1
	add	x22, x22, :lo12:.LC30
	add	x21, x0, 1664
.L201:
	mov	x0, x20
.LBE518:
.LBB519:
.LBB520:
.LBB521:
.LBB522:
.LBB523:
	.loc 4 276 0
	str	x19, [x19]
.LBE523:
.LBE522:
.LBE521:
	.loc 3 28 0
	str	x19, [x19,8]
.LBE520:
.LBE519:
.LBB524:
	.loc 1 482 0 discriminator 1
	mov	x1, x22
	mov	x2, x21
	add	x19, x19, 16
	add	x20, x20, 24
	bl	__raw_spin_lock_init
.LVL263:
.LBE524:
	.loc 1 480 0 discriminator 1
	cmp	x19, x23
	bne	.L201
.LBB525:
.LBB526:
.LBB527:
	.loc 3 27 0
	add	x0, x24, :lo12:.LANCHOR0
.LBE527:
.LBE526:
.LBE525:
.LBB534:
	.loc 1 485 0 discriminator 1
	adrp	x1, .LC31
.LBE534:
.LBB535:
.LBB532:
.LBB530:
	.loc 3 27 0
	add	x3, x0, 24
.LBE530:
.LBE532:
.LBE535:
.LBB536:
	.loc 1 485 0 discriminator 1
	mov	x2, x21
	add	x1, x1, :lo12:.LC31
.LBE536:
	.loc 1 487 0
	add	x19, x0, 40
.LBB537:
.LBB533:
.LBB531:
.LBB528:
.LBB529:
	.loc 4 276 0
	str	x3, [x0,24]
.LBE529:
.LBE528:
.LBE531:
	.loc 3 28 0
	str	x3, [x3,8]
.LBE533:
.LBE537:
.LBB538:
	.loc 1 485 0 discriminator 1
	bl	__raw_spin_lock_init
.LVL264:
.LBE538:
.LBB539:
	.loc 1 486 0 discriminator 1
	adrp	x1, .LC32
	add	x0, x25, 1632
	mov	x2, x21
	add	x1, x1, :lo12:.LC32
	bl	__raw_spin_lock_init
.LVL265:
.LBE539:
	.loc 1 487 0
	mov	x0, x19
	mov	x3, 0
	mov	w1, 0
	mov	x2, 0
	bl	init_timer_key
.LVL266:
	.loc 1 488 0
	str	xzr, [x19,32]
	.loc 1 490 0
	adrp	x1, jiffies
	.loc 1 489 0
	adrp	x2, dl_timer
	.loc 1 491 0
	mov	x0, x19
	.loc 1 489 0
	add	x2, x2, :lo12:dl_timer
	str	x2, [x19,24]
	.loc 1 490 0
	ldr	x1, [x1,#:lo12:jiffies]
	add	x1, x1, 40960
	add	x1, x1, 4040
	str	x1, [x19,16]
	.loc 1 491 0
	bl	add_timer
.LVL267:
	.loc 1 492 0
	ldr	x25, [sp,64]
	.cfi_restore 25
	ldp	x19, x20, [sp,16]
	.cfi_restore 20
	.cfi_restore 19
	ldp	x21, x22, [sp,32]
	.cfi_restore 22
	.cfi_restore 21
	ldp	x23, x24, [sp,48]
	.cfi_restore 24
	.cfi_restore 23
	ldp	x29, x30, [sp], 80
	.cfi_restore 30
	.cfi_restore 29
	.cfi_def_cfa 31, 0
	ret
	.cfi_endproc
.LFE3918:
	.size	init_appdl, .-init_appdl
	.align	2
	.global	uninit_appdl
	.type	uninit_appdl, %function
uninit_appdl:
.LFB3919:
	.loc 1 495 0
	.cfi_startproc
	.loc 1 496 0
	ret
	.cfi_endproc
.LFE3919:
	.size	uninit_appdl, .-uninit_appdl
	.global	g_wcount
	.section	__hwlog_tag,"aw",%progbits
	.align	3
	.type	_hwtag_ARGO, %object
	.size	_hwtag_ARGO, 16
_hwtag_ARGO:
	.xword	.LC33
	.word	7
	.zero	4
	.section	.rodata.str1.8,"aMS",%progbits,1
	.align	3
.LC0:
	.string	"\0016hwad:dl_timer free dlid=%d url=%s\n"
	.zero	3
.LC1:
	.string	"\0016hwad:clear_appdl_rule\n"
	.zero	7
.LC2:
	.string	"\0016hwad:add_appdl_uid>=MAX_HASH  hid=%u\n"
.LC3:
	.string	"\0016hwad:id=%u uid=%u alreadyin\n"
	.zero	1
.LC4:
	.string	"\0016hwad:add_appdl_uid hid=%u uid=%u new\n"
.LC5:
	.string	"\0016hwad:clear_appdl_uid>=MAX_HASH id=%u\n"
.LC6:
	.string	"\0016hwad:clr_dl_uid uid=%u\n"
	.zero	6
.LC7:
	.string	"\0016hwad: output_appdl_rule start\n"
	.zero	7
.LC8:
	.string	"\0016hwad:output_appdl_rule uid=%d\n"
	.zero	7
.LC9:
	.string	"\0016hwad:output_appdl_rule end\n"
	.zero	2
.LC10:
	.string	"\0016hwad:match_appdl_uid>=MAX_HASH hid=%u\n"
	.zero	7
.LC11:
	.string	".apk"
	.zero	3
.LC12:
	.string	"\0016hwad:match dlurl true urlpath=%s\n"
	.zero	4
.LC13:
	.string	"%s"
	.zero	5
.LC14:
	.string	"\0016hwad:report_msg new urlhex failure\n"
	.zero	2
.LC15:
	.string	"%u %u %s"
	.zero	7
.LC16:
	.string	"\0016hwad:report_msg dlid=%u len=%d buf=%s\n"
	.zero	7
.LC17:
	.string	"\0016hwad:get_select DLST_WAIT %p dlid=%d\n"
.LC18:
	.string	"\0016hwad:get_select NF_%d %p dlid=%d\n"
	.zero	4
.LC19:
	.string	"\0016hwad:bwait=true dlid=%d oldid=%d\n"
	.zero	4
.LC20:
	.string	"\0016hwad:bwait=false dlid=%d\n"
	.zero	4
.LC21:
	.string	"\0016hwad:nofity_loop uid=%d dlid=%d act=%d\n"
	.zero	6
.LC22:
	.string	"allow"
	.zero	2
.LC23:
	.string	"\0016hwad:notify dlid=%d allow\n"
	.zero	3
.LC24:
	.string	"\0016hwad:notify dlid=%d reject\n"
	.zero	2
.LC25:
	.string	"\0016hwad:notify not found dlid=%d act=%s\n"
.LC26:
	.string	"\0016hwad:wait DLST_NOT wcnt=%d\n"
	.zero	2
.LC27:
	.string	"\0016hwad:wait dlid=%d wcnt=%d\n"
	.zero	3
.LC28:
	.string	"\0016hwad:wait event dlid=%d action=%d wcnt=%d time=%d\n"
	.zero	3
.LC29:
	.string	"\0016hwad:wait timeout dlid=%d cnt=%d wcnt=%d time=%d\n"
	.zero	4
.LC30:
	.string	"&(&g_appdllock[i])->rlock"
	.zero	6
.LC31:
	.string	"&(&g_wait_lock)->rlock"
	.zero	1
.LC32:
	.string	"&(&g_count_lock)->rlock"
.LC33:
	.string	"ARGO"
	.bss
	.align	3
.LANCHOR0 = . + 0
.LANCHOR1 = . + 4352
.LANCHOR2 = . + 8704
	.type	g_wait_lock, %object
	.size	g_wait_lock, 24
g_wait_lock:
	.zero	24
	.type	g_dl_wait, %object
	.size	g_dl_wait, 16
g_dl_wait:
	.zero	16
	.type	g_timer, %object
	.size	g_timer, 48
g_timer:
	.zero	48
	.type	g_appdllock, %object
	.size	g_appdllock, 6144
g_appdllock:
	.zero	6144
	.type	g_appdlhead, %object
	.size	g_appdlhead, 4096
g_appdlhead:
	.zero	4096
	.type	g_dlid, %object
	.size	g_dlid, 4
g_dlid:
	.zero	4
	.type	g_wcount, %object
	.size	g_wcount, 4
g_wcount:
	.zero	4
	.type	g_count_lock, %object
	.size	g_count_lock, 24
g_count_lock:
	.zero	24
	.type	g_waitcount, %object
	.size	g_waitcount, 4
g_waitcount:
	.zero	4
	.zero	4
	.type	__key.51695, %object
	.size	__key.51695, 0
__key.51695:
	.type	__key.51699, %object
	.size	__key.51699, 0
__key.51699:
	.type	__key.51700, %object
	.size	__key.51700, 0
__key.51700:
	.text
.Letext0:
	.file 6 "/mnt/disk/jenkins/ci/workspace/chipset_EMUI9.0.1_Boston_Release/opensource/component_code/vendor/huawei/extra/build/build_script/kirin_kernel_release/kernel/include/uapi/asm-generic/int-ll64.h"
	.file 7 "/mnt/disk/jenkins/ci/workspace/chipset_EMUI9.0.1_Boston_Release/opensource/component_code/vendor/huawei/extra/build/build_script/kirin_kernel_release/kernel/include/asm-generic/int-ll64.h"
	.file 8 "/mnt/disk/jenkins/ci/workspace/chipset_EMUI9.0.1_Boston_Release/opensource/component_code/vendor/huawei/extra/build/build_script/kirin_kernel_release/kernel/include/uapi/asm-generic/posix_types.h"
	.file 9 "/mnt/disk/jenkins/ci/workspace/chipset_EMUI9.0.1_Boston_Release/opensource/component_code/vendor/huawei/extra/build/build_script/kirin_kernel_release/kernel/include/uapi/linux/types.h"
	.file 10 "/mnt/disk/jenkins/ci/workspace/chipset_EMUI9.0.1_Boston_Release/opensource/component_code/vendor/huawei/extra/build/build_script/kirin_kernel_release/kernel/include/linux/types.h"
	.file 11 "/mnt/disk/jenkins/ci/workspace/chipset_EMUI9.0.1_Boston_Release/opensource/component_code/vendor/huawei/extra/build/build_script/kirin_kernel_release/kernel/include/linux/export.h"
	.file 12 "/mnt/disk/jenkins/ci/workspace/chipset_EMUI9.0.1_Boston_Release/opensource/component_code/vendor/huawei/extra/build/build_script/kirin_kernel_release/kernel/include/linux/capability.h"
	.file 13 "/mnt/disk/jenkins/ci/workspace/chipset_EMUI9.0.1_Boston_Release/opensource/component_code/vendor/huawei/extra/build/build_script/kirin_kernel_release/kernel/include/asm-generic/bug.h"
	.file 14 "/mnt/disk/jenkins/ci/workspace/chipset_EMUI9.0.1_Boston_Release/opensource/component_code/vendor/huawei/extra/build/build_script/kirin_kernel_release/kernel/include/linux/restart_block.h"
	.file 15 "/mnt/disk/jenkins/ci/workspace/chipset_EMUI9.0.1_Boston_Release/opensource/component_code/vendor/huawei/extra/build/build_script/kirin_kernel_release/kernel/include/uapi/linux/time.h"
	.file 16 "/mnt/disk/jenkins/ci/workspace/chipset_EMUI9.0.1_Boston_Release/opensource/component_code/vendor/huawei/extra/build/build_script/kirin_kernel_release/kernel/arch/arm64/include/asm/compat.h"
	.file 17 "/mnt/disk/jenkins/ci/workspace/chipset_EMUI9.0.1_Boston_Release/opensource/component_code/vendor/huawei/extra/build/build_script/kirin_kernel_release/kernel/include/uapi/asm-generic/poll.h"
	.file 18 "/mnt/disk/jenkins/ci/workspace/chipset_EMUI9.0.1_Boston_Release/opensource/component_code/vendor/huawei/extra/build/build_script/kirin_kernel_release/kernel/arch/arm64/include/asm/thread_info.h"
	.file 19 "/mnt/disk/jenkins/ci/workspace/chipset_EMUI9.0.1_Boston_Release/opensource/component_code/vendor/huawei/extra/build/build_script/kirin_kernel_release/kernel/arch/arm64/include/uapi/asm/ptrace.h"
	.file 20 "/mnt/disk/jenkins/ci/workspace/chipset_EMUI9.0.1_Boston_Release/opensource/component_code/vendor/huawei/extra/build/build_script/kirin_kernel_release/kernel/arch/arm64/include/asm/spinlock_types.h"
	.file 21 "/mnt/disk/jenkins/ci/workspace/chipset_EMUI9.0.1_Boston_Release/opensource/component_code/vendor/huawei/extra/build/build_script/kirin_kernel_release/kernel/include/linux/spinlock_types.h"
	.file 22 "/mnt/disk/jenkins/ci/workspace/chipset_EMUI9.0.1_Boston_Release/opensource/component_code/vendor/huawei/extra/build/build_script/kirin_kernel_release/kernel/include/linux/rwlock_types.h"
	.file 23 "/mnt/disk/jenkins/ci/workspace/chipset_EMUI9.0.1_Boston_Release/opensource/component_code/vendor/huawei/extra/build/build_script/kirin_kernel_release/kernel/arch/arm64/include/asm/fpsimd.h"
	.file 24 "/mnt/disk/jenkins/ci/workspace/chipset_EMUI9.0.1_Boston_Release/opensource/component_code/vendor/huawei/extra/build/build_script/kirin_kernel_release/kernel/include/linux/jump_label.h"
	.file 25 "/mnt/disk/jenkins/ci/workspace/chipset_EMUI9.0.1_Boston_Release/opensource/component_code/vendor/huawei/extra/build/build_script/kirin_kernel_release/kernel/include/asm-generic/atomic-long.h"
	.file 26 "/mnt/disk/jenkins/ci/workspace/chipset_EMUI9.0.1_Boston_Release/opensource/component_code/vendor/huawei/extra/build/build_script/kirin_kernel_release/kernel/arch/arm64/include/asm/processor.h"
	.file 27 "/mnt/disk/jenkins/ci/workspace/chipset_EMUI9.0.1_Boston_Release/opensource/component_code/vendor/huawei/extra/build/build_script/kirin_kernel_release/kernel/include/linux/seqlock.h"
	.file 28 "/mnt/disk/jenkins/ci/workspace/chipset_EMUI9.0.1_Boston_Release/opensource/component_code/vendor/huawei/extra/build/build_script/kirin_kernel_release/kernel/include/linux/time64.h"
	.file 29 "/mnt/disk/jenkins/ci/workspace/chipset_EMUI9.0.1_Boston_Release/opensource/component_code/vendor/huawei/extra/build/build_script/kirin_kernel_release/kernel/include/linux/plist.h"
	.file 30 "/mnt/disk/jenkins/ci/workspace/chipset_EMUI9.0.1_Boston_Release/opensource/component_code/vendor/huawei/extra/build/build_script/kirin_kernel_release/kernel/include/linux/cpumask.h"
	.file 31 "/mnt/disk/jenkins/ci/workspace/chipset_EMUI9.0.1_Boston_Release/opensource/component_code/vendor/huawei/extra/build/build_script/kirin_kernel_release/kernel/include/linux/wait.h"
	.file 32 "/mnt/disk/jenkins/ci/workspace/chipset_EMUI9.0.1_Boston_Release/opensource/component_code/vendor/huawei/extra/build/build_script/kirin_kernel_release/kernel/include/linux/completion.h"
	.file 33 "/mnt/disk/jenkins/ci/workspace/chipset_EMUI9.0.1_Boston_Release/opensource/component_code/vendor/huawei/extra/build/build_script/kirin_kernel_release/kernel/include/linux/ktime.h"
	.file 34 "/mnt/disk/jenkins/ci/workspace/chipset_EMUI9.0.1_Boston_Release/opensource/component_code/vendor/huawei/extra/build/build_script/kirin_kernel_release/kernel/include/linux/rbtree.h"
	.file 35 "/mnt/disk/jenkins/ci/workspace/chipset_EMUI9.0.1_Boston_Release/opensource/component_code/vendor/huawei/extra/build/build_script/kirin_kernel_release/kernel/include/linux/nodemask.h"
	.file 36 "/mnt/disk/jenkins/ci/workspace/chipset_EMUI9.0.1_Boston_Release/opensource/component_code/vendor/huawei/extra/build/build_script/kirin_kernel_release/kernel/include/linux/osq_lock.h"
	.file 37 "/mnt/disk/jenkins/ci/workspace/chipset_EMUI9.0.1_Boston_Release/opensource/component_code/vendor/huawei/extra/build/build_script/kirin_kernel_release/kernel/include/linux/rwsem.h"
	.file 38 "/mnt/disk/jenkins/ci/workspace/chipset_EMUI9.0.1_Boston_Release/opensource/component_code/vendor/huawei/extra/build/build_script/kirin_kernel_release/kernel/include/linux/sched.h"
	.file 39 "/mnt/disk/jenkins/ci/workspace/chipset_EMUI9.0.1_Boston_Release/opensource/component_code/vendor/huawei/extra/build/build_script/kirin_kernel_release/kernel/include/linux/mm_types.h"
	.file 40 "/mnt/disk/jenkins/ci/workspace/chipset_EMUI9.0.1_Boston_Release/opensource/component_code/vendor/huawei/extra/build/build_script/kirin_kernel_release/kernel/include/linux/lockdep.h"
	.file 41 "/mnt/disk/jenkins/ci/workspace/chipset_EMUI9.0.1_Boston_Release/opensource/component_code/vendor/huawei/extra/build/build_script/kirin_kernel_release/kernel/include/linux/uprobes.h"
	.file 42 "/mnt/disk/jenkins/ci/workspace/chipset_EMUI9.0.1_Boston_Release/opensource/component_code/vendor/huawei/extra/build/build_script/kirin_kernel_release/kernel/include/linux/timer.h"
	.file 43 "/mnt/disk/jenkins/ci/workspace/chipset_EMUI9.0.1_Boston_Release/opensource/component_code/vendor/huawei/extra/build/build_script/kirin_kernel_release/kernel/include/linux/uidgid.h"
	.file 44 "/mnt/disk/jenkins/ci/workspace/chipset_EMUI9.0.1_Boston_Release/opensource/component_code/vendor/huawei/extra/build/build_script/kirin_kernel_release/kernel/include/linux/sysctl.h"
	.file 45 "/mnt/disk/jenkins/ci/workspace/chipset_EMUI9.0.1_Boston_Release/opensource/component_code/vendor/huawei/extra/build/build_script/kirin_kernel_release/kernel/include/linux/workqueue.h"
	.file 46 "/mnt/disk/jenkins/ci/workspace/chipset_EMUI9.0.1_Boston_Release/opensource/component_code/vendor/huawei/extra/build/build_script/kirin_kernel_release/kernel/arch/arm64/include/asm/pgtable-types.h"
	.file 47 "/mnt/disk/jenkins/ci/workspace/chipset_EMUI9.0.1_Boston_Release/opensource/component_code/vendor/huawei/extra/build/build_script/kirin_kernel_release/kernel/arch/arm64/include/asm/page.h"
	.file 48 "/mnt/disk/jenkins/ci/workspace/chipset_EMUI9.0.1_Boston_Release/opensource/component_code/vendor/huawei/extra/build/build_script/kirin_kernel_release/kernel/include/linux/llist.h"
	.file 49 "/mnt/disk/jenkins/ci/workspace/chipset_EMUI9.0.1_Boston_Release/opensource/component_code/vendor/huawei/extra/build/build_script/kirin_kernel_release/kernel/arch/arm64/include/asm/smp.h"
	.file 50 "/mnt/disk/jenkins/ci/workspace/chipset_EMUI9.0.1_Boston_Release/opensource/component_code/vendor/huawei/extra/build/build_script/kirin_kernel_release/kernel/arch/arm64/include/asm/mmu.h"
	.file 51 "/mnt/disk/jenkins/ci/workspace/chipset_EMUI9.0.1_Boston_Release/opensource/component_code/vendor/huawei/extra/build/build_script/kirin_kernel_release/kernel/include/linux/fs.h"
	.file 52 "/mnt/disk/jenkins/ci/workspace/chipset_EMUI9.0.1_Boston_Release/opensource/component_code/vendor/huawei/extra/build/build_script/kirin_kernel_release/kernel/include/linux/mm.h"
	.file 53 "/mnt/disk/jenkins/ci/workspace/chipset_EMUI9.0.1_Boston_Release/opensource/component_code/vendor/huawei/extra/build/build_script/kirin_kernel_release/kernel/include/linux/user_namespace.h"
	.file 54 "/mnt/disk/jenkins/ci/workspace/chipset_EMUI9.0.1_Boston_Release/opensource/component_code/vendor/huawei/extra/build/build_script/kirin_kernel_release/kernel/include/asm-generic/cputime_jiffies.h"
	.file 55 "/mnt/disk/jenkins/ci/workspace/chipset_EMUI9.0.1_Boston_Release/opensource/component_code/vendor/huawei/extra/build/build_script/kirin_kernel_release/kernel/include/uapi/asm-generic/signal.h"
	.file 56 "/mnt/disk/jenkins/ci/workspace/chipset_EMUI9.0.1_Boston_Release/opensource/component_code/vendor/huawei/extra/build/build_script/kirin_kernel_release/kernel/include/uapi/asm-generic/signal-defs.h"
	.file 57 "/mnt/disk/jenkins/ci/workspace/chipset_EMUI9.0.1_Boston_Release/opensource/component_code/vendor/huawei/extra/build/build_script/kirin_kernel_release/kernel/include/uapi/asm-generic/siginfo.h"
	.file 58 "/mnt/disk/jenkins/ci/workspace/chipset_EMUI9.0.1_Boston_Release/opensource/component_code/vendor/huawei/extra/build/build_script/kirin_kernel_release/kernel/include/linux/signal.h"
	.file 59 "/mnt/disk/jenkins/ci/workspace/chipset_EMUI9.0.1_Boston_Release/opensource/component_code/vendor/huawei/extra/build/build_script/kirin_kernel_release/kernel/include/linux/pid.h"
	.file 60 "/mnt/disk/jenkins/ci/workspace/chipset_EMUI9.0.1_Boston_Release/opensource/component_code/vendor/huawei/extra/build/build_script/kirin_kernel_release/kernel/include/linux/mmzone.h"
	.file 61 "/mnt/disk/jenkins/ci/workspace/chipset_EMUI9.0.1_Boston_Release/opensource/component_code/vendor/huawei/extra/build/build_script/kirin_kernel_release/kernel/include/linux/page_ext.h"
	.file 62 "/mnt/disk/jenkins/ci/workspace/chipset_EMUI9.0.1_Boston_Release/opensource/component_code/vendor/huawei/extra/build/build_script/kirin_kernel_release/kernel/include/linux/mutex.h"
	.file 63 "/mnt/disk/jenkins/ci/workspace/chipset_EMUI9.0.1_Boston_Release/opensource/component_code/vendor/huawei/extra/build/build_script/kirin_kernel_release/kernel/include/linux/notifier.h"
	.file 64 "/mnt/disk/jenkins/ci/workspace/chipset_EMUI9.0.1_Boston_Release/opensource/component_code/vendor/huawei/extra/build/build_script/kirin_kernel_release/kernel/include/linux/seccomp.h"
	.file 65 "/mnt/disk/jenkins/ci/workspace/chipset_EMUI9.0.1_Boston_Release/opensource/component_code/vendor/huawei/extra/build/build_script/kirin_kernel_release/kernel/include/uapi/linux/resource.h"
	.file 66 "/mnt/disk/jenkins/ci/workspace/chipset_EMUI9.0.1_Boston_Release/opensource/component_code/vendor/huawei/extra/build/build_script/kirin_kernel_release/kernel/include/linux/timerqueue.h"
	.file 67 "/mnt/disk/jenkins/ci/workspace/chipset_EMUI9.0.1_Boston_Release/opensource/component_code/vendor/huawei/extra/build/build_script/kirin_kernel_release/kernel/include/linux/hrtimer.h"
	.file 68 "/mnt/disk/jenkins/ci/workspace/chipset_EMUI9.0.1_Boston_Release/opensource/component_code/vendor/huawei/extra/build/build_script/kirin_kernel_release/kernel/include/linux/task_io_accounting.h"
	.file 69 "/mnt/disk/jenkins/ci/workspace/chipset_EMUI9.0.1_Boston_Release/opensource/component_code/vendor/huawei/extra/build/build_script/kirin_kernel_release/kernel/include/linux/assoc_array.h"
	.file 70 "/mnt/disk/jenkins/ci/workspace/chipset_EMUI9.0.1_Boston_Release/opensource/component_code/vendor/huawei/extra/build/build_script/kirin_kernel_release/kernel/include/linux/key.h"
	.file 71 "/mnt/disk/jenkins/ci/workspace/chipset_EMUI9.0.1_Boston_Release/opensource/component_code/vendor/huawei/extra/build/build_script/kirin_kernel_release/kernel/include/linux/cred.h"
	.file 72 "/mnt/disk/jenkins/ci/workspace/chipset_EMUI9.0.1_Boston_Release/opensource/component_code/vendor/huawei/extra/build/build_script/kirin_kernel_release/kernel/include/linux/idr.h"
	.file 73 "/mnt/disk/jenkins/ci/workspace/chipset_EMUI9.0.1_Boston_Release/opensource/component_code/vendor/huawei/extra/build/build_script/kirin_kernel_release/kernel/include/linux/percpu-refcount.h"
	.file 74 "/mnt/disk/jenkins/ci/workspace/chipset_EMUI9.0.1_Boston_Release/opensource/component_code/vendor/huawei/extra/build/build_script/kirin_kernel_release/kernel/include/linux/rcu_sync.h"
	.file 75 "/mnt/disk/jenkins/ci/workspace/chipset_EMUI9.0.1_Boston_Release/opensource/component_code/vendor/huawei/extra/build/build_script/kirin_kernel_release/kernel/include/linux/percpu-rwsem.h"
	.file 76 "/mnt/disk/jenkins/ci/workspace/chipset_EMUI9.0.1_Boston_Release/opensource/component_code/vendor/huawei/extra/build/build_script/kirin_kernel_release/kernel/include/uapi/linux/bpf.h"
	.file 77 "/mnt/disk/jenkins/ci/workspace/chipset_EMUI9.0.1_Boston_Release/opensource/component_code/vendor/huawei/extra/build/build_script/kirin_kernel_release/kernel/include/linux/bpf-cgroup.h"
	.file 78 "/mnt/disk/jenkins/ci/workspace/chipset_EMUI9.0.1_Boston_Release/opensource/component_code/vendor/huawei/extra/build/build_script/kirin_kernel_release/kernel/include/linux/filter.h"
	.file 79 "/mnt/disk/jenkins/ci/workspace/chipset_EMUI9.0.1_Boston_Release/opensource/component_code/vendor/huawei/extra/build/build_script/kirin_kernel_release/kernel/include/linux/cgroup-defs.h"
	.file 80 "/mnt/disk/jenkins/ci/workspace/chipset_EMUI9.0.1_Boston_Release/opensource/component_code/vendor/huawei/extra/build/build_script/kirin_kernel_release/kernel/include/linux/kernfs.h"
	.file 81 "/mnt/disk/jenkins/ci/workspace/chipset_EMUI9.0.1_Boston_Release/opensource/component_code/vendor/huawei/extra/build/build_script/kirin_kernel_release/kernel/include/linux/seq_file.h"
	.file 82 "/mnt/disk/jenkins/ci/workspace/chipset_EMUI9.0.1_Boston_Release/opensource/component_code/vendor/huawei/extra/build/build_script/kirin_kernel_release/kernel/include/uapi/linux/taskstats.h"
	.file 83 "/mnt/disk/jenkins/ci/workspace/chipset_EMUI9.0.1_Boston_Release/opensource/component_code/vendor/huawei/extra/build/build_script/kirin_kernel_release/kernel/include/linux/nsproxy.h"
	.file 84 "/mnt/disk/jenkins/ci/workspace/chipset_EMUI9.0.1_Boston_Release/opensource/component_code/vendor/huawei/extra/build/build_script/kirin_kernel_release/kernel/include/linux/backing-dev-defs.h"
	.file 85 "/mnt/disk/jenkins/ci/workspace/chipset_EMUI9.0.1_Boston_Release/opensource/component_code/vendor/huawei/extra/build/build_script/kirin_kernel_release/kernel/include/linux/compat.h"
	.file 86 "/mnt/disk/jenkins/ci/workspace/chipset_EMUI9.0.1_Boston_Release/opensource/component_code/vendor/huawei/extra/build/build_script/kirin_kernel_release/kernel/include/linux/pipe_fs_i.h"
	.file 87 "/mnt/disk/jenkins/ci/workspace/chipset_EMUI9.0.1_Boston_Release/opensource/component_code/vendor/huawei/extra/build/build_script/kirin_kernel_release/kernel/include/linux/stat.h"
	.file 88 "/mnt/disk/jenkins/ci/workspace/chipset_EMUI9.0.1_Boston_Release/opensource/component_code/vendor/huawei/extra/build/build_script/kirin_kernel_release/kernel/include/uapi/linux/elf.h"
	.file 89 "/mnt/disk/jenkins/ci/workspace/chipset_EMUI9.0.1_Boston_Release/opensource/component_code/vendor/huawei/extra/build/build_script/kirin_kernel_release/kernel/include/linux/kobject_ns.h"
	.file 90 "/mnt/disk/jenkins/ci/workspace/chipset_EMUI9.0.1_Boston_Release/opensource/component_code/vendor/huawei/extra/build/build_script/kirin_kernel_release/kernel/include/net/sock.h"
	.file 91 "/mnt/disk/jenkins/ci/workspace/chipset_EMUI9.0.1_Boston_Release/opensource/component_code/vendor/huawei/extra/build/build_script/kirin_kernel_release/kernel/include/linux/sysfs.h"
	.file 92 "/mnt/disk/jenkins/ci/workspace/chipset_EMUI9.0.1_Boston_Release/opensource/component_code/vendor/huawei/extra/build/build_script/kirin_kernel_release/kernel/include/linux/kobject.h"
	.file 93 "/mnt/disk/jenkins/ci/workspace/chipset_EMUI9.0.1_Boston_Release/opensource/component_code/vendor/huawei/extra/build/build_script/kirin_kernel_release/kernel/include/linux/kref.h"
	.file 94 "/mnt/disk/jenkins/ci/workspace/chipset_EMUI9.0.1_Boston_Release/opensource/component_code/vendor/huawei/extra/build/build_script/kirin_kernel_release/kernel/include/linux/moduleparam.h"
	.file 95 "/mnt/disk/jenkins/ci/workspace/chipset_EMUI9.0.1_Boston_Release/opensource/component_code/vendor/huawei/extra/build/build_script/kirin_kernel_release/kernel/include/linux/module.h"
	.file 96 "/mnt/disk/jenkins/ci/workspace/chipset_EMUI9.0.1_Boston_Release/opensource/component_code/vendor/huawei/extra/build/build_script/kirin_kernel_release/kernel/include/linux/rbtree_latch.h"
	.file 97 "/mnt/disk/jenkins/ci/workspace/chipset_EMUI9.0.1_Boston_Release/opensource/component_code/vendor/huawei/extra/build/build_script/kirin_kernel_release/kernel/arch/arm64/include/asm/module.h"
	.file 98 "/mnt/disk/jenkins/ci/workspace/chipset_EMUI9.0.1_Boston_Release/opensource/component_code/vendor/huawei/extra/build/build_script/kirin_kernel_release/kernel/arch/arm64/include/asm/uaccess.h"
	.file 99 "/mnt/disk/jenkins/ci/workspace/chipset_EMUI9.0.1_Boston_Release/opensource/component_code/vendor/huawei/extra/build/build_script/kirin_kernel_release/kernel/include/linux/tracepoint-defs.h"
	.file 100 "/mnt/disk/jenkins/ci/workspace/chipset_EMUI9.0.1_Boston_Release/opensource/component_code/vendor/huawei/extra/build/build_script/kirin_kernel_release/kernel/include/linux/klist.h"
	.file 101 "/mnt/disk/jenkins/ci/workspace/chipset_EMUI9.0.1_Boston_Release/opensource/component_code/vendor/huawei/extra/build/build_script/kirin_kernel_release/kernel/include/linux/list_bl.h"
	.file 102 "/mnt/disk/jenkins/ci/workspace/chipset_EMUI9.0.1_Boston_Release/opensource/component_code/vendor/huawei/extra/build/build_script/kirin_kernel_release/kernel/include/linux/lockref.h"
	.file 103 "/mnt/disk/jenkins/ci/workspace/chipset_EMUI9.0.1_Boston_Release/opensource/component_code/vendor/huawei/extra/build/build_script/kirin_kernel_release/kernel/include/linux/dcache.h"
	.file 104 "/mnt/disk/jenkins/ci/workspace/chipset_EMUI9.0.1_Boston_Release/opensource/component_code/vendor/huawei/extra/build/build_script/kirin_kernel_release/kernel/include/linux/path.h"
	.file 105 "/mnt/disk/jenkins/ci/workspace/chipset_EMUI9.0.1_Boston_Release/opensource/component_code/vendor/huawei/extra/build/build_script/kirin_kernel_release/kernel/include/linux/shrinker.h"
	.file 106 "/mnt/disk/jenkins/ci/workspace/chipset_EMUI9.0.1_Boston_Release/opensource/component_code/vendor/huawei/extra/build/build_script/kirin_kernel_release/kernel/include/linux/list_lru.h"
	.file 107 "/mnt/disk/jenkins/ci/workspace/chipset_EMUI9.0.1_Boston_Release/opensource/component_code/vendor/huawei/extra/build/build_script/kirin_kernel_release/kernel/include/linux/radix-tree.h"
	.file 108 "/mnt/disk/jenkins/ci/workspace/chipset_EMUI9.0.1_Boston_Release/opensource/component_code/vendor/huawei/extra/build/build_script/kirin_kernel_release/kernel/include/uapi/linux/fiemap.h"
	.file 109 "/mnt/disk/jenkins/ci/workspace/chipset_EMUI9.0.1_Boston_Release/opensource/component_code/vendor/huawei/extra/build/build_script/kirin_kernel_release/kernel/include/linux/migrate_mode.h"
	.file 110 "/mnt/disk/jenkins/ci/workspace/chipset_EMUI9.0.1_Boston_Release/opensource/component_code/vendor/huawei/extra/build/build_script/kirin_kernel_release/kernel/include/linux/bvec.h"
	.file 111 "/mnt/disk/jenkins/ci/workspace/chipset_EMUI9.0.1_Boston_Release/opensource/component_code/vendor/huawei/extra/build/build_script/kirin_kernel_release/kernel/include/linux/delayed_call.h"
	.file 112 "/mnt/disk/jenkins/ci/workspace/chipset_EMUI9.0.1_Boston_Release/opensource/component_code/vendor/huawei/extra/build/build_script/kirin_kernel_release/kernel/include/linux/percpu_counter.h"
	.file 113 "/mnt/disk/jenkins/ci/workspace/chipset_EMUI9.0.1_Boston_Release/opensource/component_code/vendor/huawei/extra/build/build_script/kirin_kernel_release/kernel/include/linux/quota.h"
	.file 114 "/mnt/disk/jenkins/ci/workspace/chipset_EMUI9.0.1_Boston_Release/opensource/component_code/vendor/huawei/extra/build/build_script/kirin_kernel_release/kernel/include/linux/projid.h"
	.file 115 "/mnt/disk/jenkins/ci/workspace/chipset_EMUI9.0.1_Boston_Release/opensource/component_code/vendor/huawei/extra/build/build_script/kirin_kernel_release/kernel/include/linux/writeback.h"
	.file 116 "/mnt/disk/jenkins/ci/workspace/chipset_EMUI9.0.1_Boston_Release/opensource/component_code/vendor/huawei/extra/build/build_script/kirin_kernel_release/kernel/include/linux/uio.h"
	.file 117 "/mnt/disk/jenkins/ci/workspace/chipset_EMUI9.0.1_Boston_Release/opensource/component_code/vendor/huawei/extra/build/build_script/kirin_kernel_release/kernel/include/linux/nfs_fs_i.h"
	.file 118 "/mnt/disk/jenkins/ci/workspace/chipset_EMUI9.0.1_Boston_Release/opensource/component_code/vendor/huawei/extra/build/build_script/kirin_kernel_release/kernel/include/linux/poll.h"
	.file 119 "/mnt/disk/jenkins/ci/workspace/chipset_EMUI9.0.1_Boston_Release/opensource/component_code/vendor/huawei/extra/build/build_script/kirin_kernel_release/kernel/include/linux/pinctrl/devinfo.h"
	.file 120 "/mnt/disk/jenkins/ci/workspace/chipset_EMUI9.0.1_Boston_Release/opensource/component_code/vendor/huawei/extra/build/build_script/kirin_kernel_release/kernel/include/linux/pm.h"
	.file 121 "/mnt/disk/jenkins/ci/workspace/chipset_EMUI9.0.1_Boston_Release/opensource/component_code/vendor/huawei/extra/build/build_script/kirin_kernel_release/kernel/include/linux/device.h"
	.file 122 "/mnt/disk/jenkins/ci/workspace/chipset_EMUI9.0.1_Boston_Release/opensource/component_code/vendor/huawei/extra/build/build_script/kirin_kernel_release/kernel/include/linux/pm_wakeup.h"
	.file 123 "/mnt/disk/jenkins/ci/workspace/chipset_EMUI9.0.1_Boston_Release/opensource/component_code/vendor/huawei/extra/build/build_script/kirin_kernel_release/kernel/arch/arm64/include/asm/device.h"
	.file 124 "/mnt/disk/jenkins/ci/workspace/chipset_EMUI9.0.1_Boston_Release/opensource/component_code/vendor/huawei/extra/build/build_script/kirin_kernel_release/kernel/include/linux/dma-mapping.h"
	.file 125 "/mnt/disk/jenkins/ci/workspace/chipset_EMUI9.0.1_Boston_Release/opensource/component_code/vendor/huawei/extra/build/build_script/kirin_kernel_release/kernel/include/linux/mod_devicetable.h"
	.file 126 "/mnt/disk/jenkins/ci/workspace/chipset_EMUI9.0.1_Boston_Release/opensource/component_code/vendor/huawei/extra/build/build_script/kirin_kernel_release/kernel/include/linux/of.h"
	.file 127 "/mnt/disk/jenkins/ci/workspace/chipset_EMUI9.0.1_Boston_Release/opensource/component_code/vendor/huawei/extra/build/build_script/kirin_kernel_release/kernel/include/linux/fwnode.h"
	.file 128 "/mnt/disk/jenkins/ci/workspace/chipset_EMUI9.0.1_Boston_Release/opensource/component_code/vendor/huawei/extra/build/build_script/kirin_kernel_release/kernel/include/uapi/linux/uio.h"
	.file 129 "/mnt/disk/jenkins/ci/workspace/chipset_EMUI9.0.1_Boston_Release/opensource/component_code/vendor/huawei/extra/build/build_script/kirin_kernel_release/kernel/include/linux/vm_event_item.h"
	.file 130 "/mnt/disk/jenkins/ci/workspace/chipset_EMUI9.0.1_Boston_Release/opensource/component_code/vendor/huawei/extra/build/build_script/kirin_kernel_release/kernel/include/linux/vmstat.h"
	.file 131 "/mnt/disk/jenkins/ci/workspace/chipset_EMUI9.0.1_Boston_Release/opensource/component_code/vendor/huawei/extra/build/build_script/kirin_kernel_release/kernel/include/linux/scatterlist.h"
	.file 132 "/mnt/disk/jenkins/ci/workspace/chipset_EMUI9.0.1_Boston_Release/opensource/component_code/vendor/huawei/extra/build/build_script/kirin_kernel_release/kernel/include/linux/dmaengine.h"
	.file 133 "/mnt/disk/jenkins/ci/workspace/chipset_EMUI9.0.1_Boston_Release/opensource/component_code/vendor/huawei/extra/build/build_script/kirin_kernel_release/kernel/include/linux/dynamic_queue_limits.h"
	.file 134 "/mnt/disk/jenkins/ci/workspace/chipset_EMUI9.0.1_Boston_Release/opensource/component_code/vendor/huawei/extra/build/build_script/kirin_kernel_release/kernel/include/uapi/linux/socket.h"
	.file 135 "/mnt/disk/jenkins/ci/workspace/chipset_EMUI9.0.1_Boston_Release/opensource/component_code/vendor/huawei/extra/build/build_script/kirin_kernel_release/kernel/include/linux/socket.h"
	.file 136 "/mnt/disk/jenkins/ci/workspace/chipset_EMUI9.0.1_Boston_Release/opensource/component_code/vendor/huawei/extra/build/build_script/kirin_kernel_release/kernel/include/uapi/linux/hdlc/ioctl.h"
	.file 137 "/mnt/disk/jenkins/ci/workspace/chipset_EMUI9.0.1_Boston_Release/opensource/component_code/vendor/huawei/extra/build/build_script/kirin_kernel_release/kernel/include/uapi/linux/if.h"
	.file 138 "/mnt/disk/jenkins/ci/workspace/chipset_EMUI9.0.1_Boston_Release/opensource/component_code/vendor/huawei/extra/build/build_script/kirin_kernel_release/kernel/include/linux/stddef.h"
	.file 139 "/mnt/disk/jenkins/ci/workspace/chipset_EMUI9.0.1_Boston_Release/opensource/component_code/vendor/huawei/extra/build/build_script/kirin_kernel_release/kernel/include/uapi/linux/net.h"
	.file 140 "/mnt/disk/jenkins/ci/workspace/chipset_EMUI9.0.1_Boston_Release/opensource/component_code/vendor/huawei/extra/build/build_script/kirin_kernel_release/kernel/include/linux/net.h"
	.file 141 "/mnt/disk/jenkins/ci/workspace/chipset_EMUI9.0.1_Boston_Release/opensource/component_code/vendor/huawei/extra/build/build_script/kirin_kernel_release/kernel/include/linux/skbuff.h"
	.file 142 "/mnt/disk/jenkins/ci/workspace/chipset_EMUI9.0.1_Boston_Release/opensource/component_code/vendor/huawei/extra/build/build_script/kirin_kernel_release/kernel/include/net/net_namespace.h"
	.file 143 "/mnt/disk/jenkins/ci/workspace/chipset_EMUI9.0.1_Boston_Release/opensource/component_code/vendor/huawei/extra/build/build_script/kirin_kernel_release/kernel/include/linux/dma-direction.h"
	.file 144 "/mnt/disk/jenkins/ci/workspace/chipset_EMUI9.0.1_Boston_Release/opensource/component_code/vendor/huawei/extra/build/build_script/kirin_kernel_release/kernel/include/linux/netdev_features.h"
	.file 145 "/mnt/disk/jenkins/ci/workspace/chipset_EMUI9.0.1_Boston_Release/opensource/component_code/vendor/huawei/extra/build/build_script/kirin_kernel_release/kernel/include/uapi/linux/in6.h"
	.file 146 "/mnt/disk/jenkins/ci/workspace/chipset_EMUI9.0.1_Boston_Release/opensource/component_code/vendor/huawei/extra/build/build_script/kirin_kernel_release/kernel/include/uapi/linux/if_ether.h"
	.file 147 "/mnt/disk/jenkins/ci/workspace/chipset_EMUI9.0.1_Boston_Release/opensource/component_code/vendor/huawei/extra/build/build_script/kirin_kernel_release/kernel/include/net/flow_dissector.h"
	.file 148 "/mnt/disk/jenkins/ci/workspace/chipset_EMUI9.0.1_Boston_Release/opensource/component_code/vendor/huawei/extra/build/build_script/kirin_kernel_release/kernel/include/net/flow.h"
	.file 149 "/mnt/disk/jenkins/ci/workspace/chipset_EMUI9.0.1_Boston_Release/opensource/component_code/vendor/huawei/extra/build/build_script/kirin_kernel_release/kernel/include/linux/netdevice.h"
	.file 150 "/mnt/disk/jenkins/ci/workspace/chipset_EMUI9.0.1_Boston_Release/opensource/component_code/vendor/huawei/extra/build/build_script/kirin_kernel_release/kernel/include/uapi/linux/ethtool.h"
	.file 151 "/mnt/disk/jenkins/ci/workspace/chipset_EMUI9.0.1_Boston_Release/opensource/component_code/vendor/huawei/extra/build/build_script/kirin_kernel_release/kernel/include/linux/ethtool.h"
	.file 152 "/mnt/disk/jenkins/ci/workspace/chipset_EMUI9.0.1_Boston_Release/opensource/component_code/vendor/huawei/extra/build/build_script/kirin_kernel_release/kernel/include/net/netns/core.h"
	.file 153 "/mnt/disk/jenkins/ci/workspace/chipset_EMUI9.0.1_Boston_Release/opensource/component_code/vendor/huawei/extra/build/build_script/kirin_kernel_release/kernel/include/uapi/linux/snmp.h"
	.file 154 "/mnt/disk/jenkins/ci/workspace/chipset_EMUI9.0.1_Boston_Release/opensource/component_code/vendor/huawei/extra/build/build_script/kirin_kernel_release/kernel/include/linux/u64_stats_sync.h"
	.file 155 "/mnt/disk/jenkins/ci/workspace/chipset_EMUI9.0.1_Boston_Release/opensource/component_code/vendor/huawei/extra/build/build_script/kirin_kernel_release/kernel/include/net/snmp.h"
	.file 156 "/mnt/disk/jenkins/ci/workspace/chipset_EMUI9.0.1_Boston_Release/opensource/component_code/vendor/huawei/extra/build/build_script/kirin_kernel_release/kernel/include/net/netns/mib.h"
	.file 157 "/mnt/disk/jenkins/ci/workspace/chipset_EMUI9.0.1_Boston_Release/opensource/component_code/vendor/huawei/extra/build/build_script/kirin_kernel_release/kernel/include/net/netns/unix.h"
	.file 158 "/mnt/disk/jenkins/ci/workspace/chipset_EMUI9.0.1_Boston_Release/opensource/component_code/vendor/huawei/extra/build/build_script/kirin_kernel_release/kernel/include/net/netns/packet.h"
	.file 159 "/mnt/disk/jenkins/ci/workspace/chipset_EMUI9.0.1_Boston_Release/opensource/component_code/vendor/huawei/extra/build/build_script/kirin_kernel_release/kernel/include/net/inet_frag.h"
	.file 160 "/mnt/disk/jenkins/ci/workspace/chipset_EMUI9.0.1_Boston_Release/opensource/component_code/vendor/huawei/extra/build/build_script/kirin_kernel_release/kernel/include/net/netns/ipv4.h"
	.file 161 "/mnt/disk/jenkins/ci/workspace/chipset_EMUI9.0.1_Boston_Release/opensource/component_code/vendor/huawei/extra/build/build_script/kirin_kernel_release/kernel/include/net/fib_rules.h"
	.file 162 "/mnt/disk/jenkins/ci/workspace/chipset_EMUI9.0.1_Boston_Release/opensource/component_code/vendor/huawei/extra/build/build_script/kirin_kernel_release/kernel/include/net/dst_ops.h"
	.file 163 "/mnt/disk/jenkins/ci/workspace/chipset_EMUI9.0.1_Boston_Release/opensource/component_code/vendor/huawei/extra/build/build_script/kirin_kernel_release/kernel/include/net/dst.h"
	.file 164 "/mnt/disk/jenkins/ci/workspace/chipset_EMUI9.0.1_Boston_Release/opensource/component_code/vendor/huawei/extra/build/build_script/kirin_kernel_release/kernel/include/net/neighbour.h"
	.file 165 "/mnt/disk/jenkins/ci/workspace/chipset_EMUI9.0.1_Boston_Release/opensource/component_code/vendor/huawei/extra/build/build_script/kirin_kernel_release/kernel/include/net/netns/ipv6.h"
	.file 166 "/mnt/disk/jenkins/ci/workspace/chipset_EMUI9.0.1_Boston_Release/opensource/component_code/vendor/huawei/extra/build/build_script/kirin_kernel_release/kernel/include/net/netns/mptcp.h"
	.file 167 "/mnt/disk/jenkins/ci/workspace/chipset_EMUI9.0.1_Boston_Release/opensource/component_code/vendor/huawei/extra/build/build_script/kirin_kernel_release/kernel/include/uapi/linux/netfilter.h"
	.file 168 "/mnt/disk/jenkins/ci/workspace/chipset_EMUI9.0.1_Boston_Release/opensource/component_code/vendor/huawei/extra/build/build_script/kirin_kernel_release/kernel/include/net/netns/netfilter.h"
	.file 169 "/mnt/disk/jenkins/ci/workspace/chipset_EMUI9.0.1_Boston_Release/opensource/component_code/vendor/huawei/extra/build/build_script/kirin_kernel_release/kernel/include/linux/netfilter.h"
	.file 170 "/mnt/disk/jenkins/ci/workspace/chipset_EMUI9.0.1_Boston_Release/opensource/component_code/vendor/huawei/extra/build/build_script/kirin_kernel_release/kernel/include/net/netns/x_tables.h"
	.file 171 "/mnt/disk/jenkins/ci/workspace/chipset_EMUI9.0.1_Boston_Release/opensource/component_code/vendor/huawei/extra/build/build_script/kirin_kernel_release/kernel/include/linux/list_nulls.h"
	.file 172 "/mnt/disk/jenkins/ci/workspace/chipset_EMUI9.0.1_Boston_Release/opensource/component_code/vendor/huawei/extra/build/build_script/kirin_kernel_release/kernel/include/uapi/linux/netfilter/nf_conntrack_tcp.h"
	.file 173 "/mnt/disk/jenkins/ci/workspace/chipset_EMUI9.0.1_Boston_Release/opensource/component_code/vendor/huawei/extra/build/build_script/kirin_kernel_release/kernel/include/net/netns/conntrack.h"
	.file 174 "/mnt/disk/jenkins/ci/workspace/chipset_EMUI9.0.1_Boston_Release/opensource/component_code/vendor/huawei/extra/build/build_script/kirin_kernel_release/kernel/include/net/netns/nftables.h"
	.file 175 "/mnt/disk/jenkins/ci/workspace/chipset_EMUI9.0.1_Boston_Release/opensource/component_code/vendor/huawei/extra/build/build_script/kirin_kernel_release/kernel/include/uapi/linux/xfrm.h"
	.file 176 "/mnt/disk/jenkins/ci/workspace/chipset_EMUI9.0.1_Boston_Release/opensource/component_code/vendor/huawei/extra/build/build_script/kirin_kernel_release/kernel/include/linux/interrupt.h"
	.file 177 "/mnt/disk/jenkins/ci/workspace/chipset_EMUI9.0.1_Boston_Release/opensource/component_code/vendor/huawei/extra/build/build_script/kirin_kernel_release/kernel/include/net/flowcache.h"
	.file 178 "/mnt/disk/jenkins/ci/workspace/chipset_EMUI9.0.1_Boston_Release/opensource/component_code/vendor/huawei/extra/build/build_script/kirin_kernel_release/kernel/include/net/netns/xfrm.h"
	.file 179 "/mnt/disk/jenkins/ci/workspace/chipset_EMUI9.0.1_Boston_Release/opensource/component_code/vendor/huawei/extra/build/build_script/kirin_kernel_release/kernel/include/linux/ns_common.h"
	.file 180 "/mnt/disk/jenkins/ci/workspace/chipset_EMUI9.0.1_Boston_Release/opensource/component_code/vendor/huawei/extra/build/build_script/kirin_kernel_release/kernel/include/linux/cgroup.h"
	.file 181 "/mnt/disk/jenkins/ci/workspace/chipset_EMUI9.0.1_Boston_Release/opensource/component_code/vendor/huawei/extra/build/build_script/kirin_kernel_release/kernel/include/linux/mdio.h"
	.file 182 "/mnt/disk/jenkins/ci/workspace/chipset_EMUI9.0.1_Boston_Release/opensource/component_code/vendor/huawei/extra/build/build_script/kirin_kernel_release/kernel/include/linux/phy.h"
	.file 183 "/mnt/disk/jenkins/ci/workspace/chipset_EMUI9.0.1_Boston_Release/opensource/component_code/vendor/huawei/extra/build/build_script/kirin_kernel_release/kernel/include/uapi/linux/netlink.h"
	.file 184 "/mnt/disk/jenkins/ci/workspace/chipset_EMUI9.0.1_Boston_Release/opensource/component_code/vendor/huawei/extra/build/build_script/kirin_kernel_release/kernel/include/linux/netlink.h"
	.file 185 "/mnt/disk/jenkins/ci/workspace/chipset_EMUI9.0.1_Boston_Release/opensource/component_code/vendor/huawei/extra/build/build_script/kirin_kernel_release/kernel/include/uapi/linux/neighbour.h"
	.file 186 "/mnt/disk/jenkins/ci/workspace/chipset_EMUI9.0.1_Boston_Release/opensource/component_code/vendor/huawei/extra/build/build_script/kirin_kernel_release/kernel/include/uapi/linux/if_link.h"
	.file 187 "/mnt/disk/jenkins/ci/workspace/chipset_EMUI9.0.1_Boston_Release/opensource/component_code/vendor/huawei/extra/build/build_script/kirin_kernel_release/kernel/include/linux/if_link.h"
	.file 188 "/mnt/disk/jenkins/ci/workspace/chipset_EMUI9.0.1_Boston_Release/opensource/component_code/vendor/huawei/extra/build/build_script/kirin_kernel_release/kernel/include/uapi/linux/pkt_sched.h"
	.file 189 "/mnt/disk/jenkins/ci/workspace/chipset_EMUI9.0.1_Boston_Release/opensource/component_code/vendor/huawei/extra/build/build_script/kirin_kernel_release/kernel/include/net/sch_generic.h"
	.file 190 "/mnt/disk/jenkins/ci/workspace/chipset_EMUI9.0.1_Boston_Release/opensource/component_code/vendor/huawei/extra/build/build_script/kirin_kernel_release/kernel/include/net/rtnetlink.h"
	.file 191 "/mnt/disk/jenkins/ci/workspace/chipset_EMUI9.0.1_Boston_Release/opensource/component_code/vendor/huawei/extra/build/build_script/kirin_kernel_release/kernel/include/linux/flex_proportions.h"
	.file 192 "/mnt/disk/jenkins/ci/workspace/chipset_EMUI9.0.1_Boston_Release/opensource/component_code/vendor/huawei/extra/build/build_script/kirin_kernel_release/kernel/include/uapi/linux/gen_stats.h"
	.file 193 "/mnt/disk/jenkins/ci/workspace/chipset_EMUI9.0.1_Boston_Release/opensource/component_code/vendor/huawei/extra/build/build_script/kirin_kernel_release/kernel/include/uapi/linux/rtnetlink.h"
	.file 194 "/mnt/disk/jenkins/ci/workspace/chipset_EMUI9.0.1_Boston_Release/opensource/component_code/vendor/huawei/extra/build/build_script/kirin_kernel_release/kernel/include/net/gen_stats.h"
	.file 195 "/mnt/disk/jenkins/ci/workspace/chipset_EMUI9.0.1_Boston_Release/opensource/component_code/vendor/huawei/extra/build/build_script/kirin_kernel_release/kernel/include/net/netlink.h"
	.file 196 "/mnt/disk/jenkins/ci/workspace/chipset_EMUI9.0.1_Boston_Release/opensource/component_code/vendor/huawei/extra/build/build_script/kirin_kernel_release/kernel/include/uapi/linux/filter.h"
	.file 197 "/mnt/disk/jenkins/ci/workspace/chipset_EMUI9.0.1_Boston_Release/opensource/component_code/vendor/huawei/extra/build/build_script/kirin_kernel_release/kernel/include/huawei_platform/emcom/smartcare/network_measurement/nm_types.h"
	.file 198 "/mnt/disk/jenkins/ci/workspace/chipset_EMUI9.0.1_Boston_Release/opensource/component_code/vendor/huawei/extra/build/build_script/kirin_kernel_release/kernel/include/net/inet_timewait_sock.h"
	.file 199 "/mnt/disk/jenkins/ci/workspace/chipset_EMUI9.0.1_Boston_Release/opensource/component_code/vendor/huawei/extra/build/build_script/kirin_kernel_release/kernel/include/net/request_sock.h"
	.file 200 "/mnt/disk/jenkins/ci/workspace/chipset_EMUI9.0.1_Boston_Release/opensource/component_code/vendor/huawei/extra/build/build_script/kirin_kernel_release/kernel/include/net/timewait_sock.h"
	.file 201 "/mnt/disk/jenkins/ci/workspace/chipset_EMUI9.0.1_Boston_Release/opensource/component_code/vendor/huawei/extra/build/build_script/kirin_kernel_release/kernel/include/uapi/linux/fib_rules.h"
	.file 202 "/mnt/disk/jenkins/ci/workspace/chipset_EMUI9.0.1_Boston_Release/opensource/component_code/vendor/huawei/extra/build/build_script/kirin_kernel_release/kernel/include/huawei_platform/log/hw_log.h"
	.file 203 "/mnt/disk/jenkins/ci/workspace/chipset_EMUI9.0.1_Boston_Release/opensource/component_code/vendor/huawei/extra/build/build_script/kirin_kernel_release/kernel/drivers/huawei_platform/net/hw_netfilter/nf_app_dl_monitor.h"
	.file 204 "/mnt/disk/jenkins/ci/workspace/chipset_EMUI9.0.1_Boston_Release/opensource/component_code/vendor/huawei/extra/build/build_script/kirin_kernel_release/kernel/include/asm-generic/bitops/builtin-__fls.h"
	.file 205 "/mnt/disk/jenkins/ci/workspace/chipset_EMUI9.0.1_Boston_Release/opensource/component_code/vendor/huawei/extra/build/build_script/kirin_kernel_release/kernel/include/asm-generic/bitops/fls64.h"
	.file 206 "/mnt/disk/jenkins/ci/workspace/chipset_EMUI9.0.1_Boston_Release/opensource/component_code/vendor/huawei/extra/build/build_script/kirin_kernel_release/kernel/include/linux/log2.h"
	.file 207 "/mnt/disk/jenkins/ci/workspace/chipset_EMUI9.0.1_Boston_Release/opensource/component_code/vendor/huawei/extra/build/build_script/kirin_kernel_release/kernel/include/asm-generic/getorder.h"
	.file 208 "/mnt/disk/jenkins/ci/workspace/chipset_EMUI9.0.1_Boston_Release/opensource/component_code/vendor/huawei/extra/build/build_script/kirin_kernel_release/kernel/include/huawei_platform/emcom/argo/tcp_argo.h"
	.file 209 "/mnt/disk/jenkins/ci/workspace/chipset_EMUI9.0.1_Boston_Release/opensource/component_code/vendor/huawei/extra/build/build_script/kirin_kernel_release/kernel/arch/arm64/include/asm/cachetype.h"
	.file 210 "/mnt/disk/jenkins/ci/workspace/chipset_EMUI9.0.1_Boston_Release/opensource/component_code/vendor/huawei/extra/build/build_script/kirin_kernel_release/kernel/include/linux/printk.h"
	.file 211 "/mnt/disk/jenkins/ci/workspace/chipset_EMUI9.0.1_Boston_Release/opensource/component_code/vendor/huawei/extra/build/build_script/kirin_kernel_release/kernel/include/linux/kernel.h"
	.file 212 "/mnt/disk/jenkins/ci/workspace/chipset_EMUI9.0.1_Boston_Release/opensource/component_code/vendor/huawei/extra/build/build_script/kirin_kernel_release/kernel/arch/arm64/include/asm/stack_pointer.h"
	.file 213 "/mnt/disk/jenkins/ci/workspace/chipset_EMUI9.0.1_Boston_Release/opensource/component_code/vendor/huawei/extra/build/build_script/kirin_kernel_release/kernel/arch/arm64/include/asm/hwcap.h"
	.file 214 "/mnt/disk/jenkins/ci/workspace/chipset_EMUI9.0.1_Boston_Release/opensource/component_code/vendor/huawei/extra/build/build_script/kirin_kernel_release/kernel/arch/arm64/include/asm/cpufeature.h"
	.file 215 "/mnt/disk/jenkins/ci/workspace/chipset_EMUI9.0.1_Boston_Release/opensource/component_code/vendor/huawei/extra/build/build_script/kirin_kernel_release/kernel/arch/arm64/include/asm/virt.h"
	.file 216 "/mnt/disk/jenkins/ci/workspace/chipset_EMUI9.0.1_Boston_Release/opensource/component_code/vendor/huawei/extra/build/build_script/kirin_kernel_release/kernel/include/linux/jiffies.h"
	.file 217 "/mnt/disk/jenkins/ci/workspace/chipset_EMUI9.0.1_Boston_Release/opensource/component_code/vendor/huawei/extra/build/build_script/kirin_kernel_release/kernel/include/linux/highuid.h"
	.file 218 "/mnt/disk/jenkins/ci/workspace/chipset_EMUI9.0.1_Boston_Release/opensource/component_code/vendor/huawei/extra/build/build_script/kirin_kernel_release/kernel/arch/arm64/include/asm/memory.h"
	.file 219 "/mnt/disk/jenkins/ci/workspace/chipset_EMUI9.0.1_Boston_Release/opensource/component_code/vendor/huawei/extra/build/build_script/kirin_kernel_release/kernel/include/asm-generic/percpu.h"
	.file 220 "/mnt/disk/jenkins/ci/workspace/chipset_EMUI9.0.1_Boston_Release/opensource/component_code/vendor/huawei/extra/build/build_script/kirin_kernel_release/kernel/include/asm-generic/pgtable.h"
	.file 221 "/mnt/disk/jenkins/ci/workspace/chipset_EMUI9.0.1_Boston_Release/opensource/component_code/vendor/huawei/extra/build/build_script/kirin_kernel_release/kernel/include/linux/debug_locks.h"
	.file 222 "/mnt/disk/jenkins/ci/workspace/chipset_EMUI9.0.1_Boston_Release/opensource/component_code/vendor/huawei/extra/build/build_script/kirin_kernel_release/kernel/arch/arm64/include/../../arm/include/asm/xen/hypervisor.h"
	.file 223 "/mnt/disk/jenkins/ci/workspace/chipset_EMUI9.0.1_Boston_Release/opensource/component_code/vendor/huawei/extra/build/build_script/kirin_kernel_release/kernel/arch/arm64/include/asm/dma-mapping.h"
	.file 224 "/mnt/disk/jenkins/ci/workspace/chipset_EMUI9.0.1_Boston_Release/opensource/component_code/vendor/huawei/extra/build/build_script/kirin_kernel_release/kernel/arch/arm64/include/asm/irq.h"
	.file 225 "/mnt/disk/jenkins/ci/workspace/chipset_EMUI9.0.1_Boston_Release/opensource/component_code/vendor/huawei/extra/build/build_script/kirin_kernel_release/kernel/arch/arm64/include/asm/hardirq.h"
	.file 226 "/mnt/disk/jenkins/ci/workspace/chipset_EMUI9.0.1_Boston_Release/opensource/component_code/vendor/huawei/extra/build/build_script/kirin_kernel_release/kernel/include/net/inet_connection_sock.h"
	.file 227 "/mnt/disk/jenkins/ci/workspace/chipset_EMUI9.0.1_Boston_Release/opensource/component_code/vendor/huawei/extra/build/build_script/kirin_kernel_release/kernel/include/linux/ctype.h"
	.file 228 "/mnt/disk/jenkins/ci/workspace/chipset_EMUI9.0.1_Boston_Release/opensource/component_code/vendor/huawei/extra/build/build_script/kirin_kernel_release/kernel/include/linux/spinlock_api_smp.h"
	.file 229 "/mnt/disk/jenkins/ci/workspace/chipset_EMUI9.0.1_Boston_Release/opensource/component_code/vendor/huawei/extra/build/build_script/kirin_kernel_release/kernel/drivers/huawei_platform/net/hw_netfilter/nf_hw_common.h"
	.file 230 "/mnt/disk/jenkins/ci/workspace/chipset_EMUI9.0.1_Boston_Release/opensource/component_code/vendor/huawei/extra/build/build_script/kirin_kernel_release/kernel/arch/arm64/include/asm/string.h"
	.file 231 "/mnt/disk/jenkins/ci/workspace/chipset_EMUI9.0.1_Boston_Release/opensource/component_code/vendor/huawei/extra/build/build_script/kirin_kernel_release/kernel/include/asm-generic/delay.h"
	.file 232 "<built-in>"
	.section	.note.GNU-stack,"",%progbits
